ccollections
defaultdict
p0
(c__builtin__
int
p1
tp2
Rp3
(S'U06:in/sterling'
p4
S'B-PP'
p5
tp6
F0.1
s(S'U02:increase'
p7
S'I-VP'
p8
tp9
F0.1
s(S'U06:expected/to'
p10
S'B-NP'
p11
tp12
F-0.1
s(S'U05:-LRB-/$'
p13
S'B-ADJP'
p14
tp15
F0.1
s(S'U03:been'
p16
g11
tp17
F-0.1
s(S'U00:If'
p18
S'B-VP'
p19
tp20
F0.1
s(S'U17:NNS/IN'
p21
S'I-NP'
p22
tp23
F0.3
s(S'U15:IN/NNP'
p24
S'I-NP'
p25
tp26
F0.6
s(S'U05:deficit/of'
p27
g11
tp28
F-0.1
s(S"U06:Lawson/'s"
p29
S'I-NP'
p30
tp31
F0.1
s(S'U12:RBq'
p32
S'I-VP'
p33
tp34
F0.1
s(S'U16:NN/NN'
p35
g11
tp36
F-0.5
s(S'U06:consumer/and'
p37
g11
tp38
F-0.1
s(S'U05:risk/of'
p39
g11
tp40
F-0.1
s(S'U04:take'
p41
S'I-VP'
p42
tp43
F0.1
s(S'U00:level'
p44
g11
tp45
F-0.1
s(S'U21:NN/JJ/NN'
p46
S'I-NP'
p47
tp48
F0.1
s(S'U01:rates'
p49
g11
tp50
F-0.1
s(S'U06:./_B+1'
p51
g11
tp52
F-1.0
s(S'U18:NN/NNS'
p53
g11
tp54
F-0.5
s(S'U05:Confidence/in'
p55
g11
tp56
F-0.1
s(S'U01:firm'
p57
g11
tp58
F-0.1
s(S'U18:RB/IN'
p59
g11
tp60
F-0.2
s(S'U15:,/NNP'
p61
g11
tp62
F-0.1
s(S'U22:TO/VB/NN'
p63
S'I-VP'
p64
tp65
F0.1
s(S'U20:JJ/NN/,'
p66
g11
tp67
F-0.2
s(S'U16:,/VBN'
p68
S'B-PP'
p69
tp70
F0.1
s(S'U05:measures/in'
p71
g11
tp72
F-0.1
s(S'U03:the'
p73
S'O'
p74
tp75
F0.1
s(S'U18:JJ/NNS'
p76
g11
tp77
F-0.1
s(S'U03:of'
p78
S'I-NP'
p79
tp80
F0.4
s(S'U06:Exchequer/Nigel'
p81
S'I-NP'
p82
tp83
F0.1
s(S'U16:DT/VBZ'
p84
S'B-VP'
p85
tp86
F0.1
s(S'U13:VBG'
p87
S'I-NP'
p88
tp89
F0.1
s(S'U01:sterling'
p90
g11
tp91
F-0.3
s(S'U01:#'
p92
S'I-NP'
p93
tp94
F0.2
s(S'U22:RB/IN/DT'
p95
S'I-ADVP'
p96
tp97
F0.1
s(S'U17:NN/VBG'
p98
g11
tp99
F-0.1
s(S'U03:any'
p100
S'I-VP'
p101
tp102
F0.1
s(S'U15:IN/DT'
p103
g82
tp104
F1.2
s(S'U00:for'
p105
g74
tp106
F0.3
s(S'U18:VBZ/VBN'
p107
S'I-NP'
p108
tp109
F0.1
s(S'U21:NN/VBZ/VBG'
p110
g11
tp111
F-0.1
s(S'U20:_B-2/_B-1/``'
p112
g11
tp113
F-0.2
s(S'U15:_B-2/_B-1'
p114
g74
tp115
F0.4
s(S'U05:the/Exchequer'
p116
g11
tp117
F-0.1
s(S'U00:past'
p118
g11
tp119
F-0.1
s(S'U16:NNS/IN'
p120
g11
tp121
F-0.4
s(S'U00:At'
p122
g11
tp123
F-0.1
s(S'U15:NNS/VBP'
p124
S'B-ADVP'
p125
tp126
F0.1
s(S'U00:July'
p127
S'I-VP'
p128
tp129
F0.1
s(S'U20:,/JJ/NNP'
p130
g11
tp131
F-0.1
s(S'U17:RB/RB'
p132
S'B-ADVP'
p133
tp134
F0.1
s(S'U02:gap'
p135
S'I-NP'
p136
tp137
F0.1
s(S'U13:IN'
p138
g11
tp139
F-2.7
s(S'U04:reported'
p140
S'I-NP'
p141
tp142
F0.1
s(S'U22:CC/JJ/NNS'
p143
g11
tp144
F-0.1
s(S'U05:Mansion/House'
p145
g11
tp146
F-0.1
s(S'U16:NN/JJ'
p147
g11
tp148
F-0.1
s(S'U04:awful'
p149
g11
tp150
F-0.1
s(S'U15:DT/JJ'
p151
S'I-NP'
p152
tp153
F1.0
s(S'U20:VBD/EX/VBZ'
p154
S'B-VP'
p155
tp156
F0.1
s(S'U15:VBZ/VBN'
p157
g11
tp158
F-0.2
s(S'U05:to/boost'
p159
S'I-VP'
p160
tp161
F0.1
s(S'U21:VB/TO/VB'
p162
g11
tp163
F-0.1
s(S'U05:the/trade'
p164
g11
tp165
F-0.1
s(S'U01:base'
p166
g11
tp167
F-0.1
s(S'U02:to'
p168
S'B-PP'
p169
tp170
F0.2
s(S'U16:PRP$/JJ'
p171
S'I-NP'
p172
tp173
F0.1
s(S'U00:high'
p174
S'I-NP'
p175
tp176
F0.1
s(S'U03:imports'
p177
S'B-PP'
p178
tp179
F0.1
s(S'U21:PRP/TO/VB'
p180
S'B-VP'
p181
tp182
F0.1
s(S'U02:``'
p183
g11
tp184
F-0.2
s(S'U02:Exchequer'
p185
g82
tp186
F0.1
s(S'U22:VB/DT/JJ'
p187
g11
tp188
F-0.4
s(S'U14:IN'
p189
g11
tp190
F-1.7
s(S'U15:DT/NN'
p191
g47
tp192
F0.2
s(S'U20:NN/NN/TO'
p193
S'B-VP'
p194
tp195
F0.1
s(S'U02:current'
p196
g172
tp197
F0.2
s(S'U22:JJ/IN/DT'
p198
g11
tp199
F-0.1
s(S'U21:VBP/RB/,'
p200
g11
tp201
F-0.1
s(S'U20:CC/DT/#'
p202
g11
tp203
F-0.1
s(S'U00:same'
p204
g74
tp205
F0.1
s(S'U06:high/consumer'
p206
g11
tp207
F-0.1
s(S'U00:manufacturing'
p208
g11
tp209
F-0.1
s(S'U03:to'
p210
g11
tp211
F-0.9
s(S'U22:CD/./_B+1'
p212
S'I-NP'
p213
tp214
F0.1
s(S'U06:%/level'
p215
S'I-NP'
p216
tp217
F0.1
s(S'U02:consumer'
p218
g11
tp219
F-0.1
s(S'U01:-LRB-'
p220
g14
tp221
F0.1
s(S'U17:CD/CD'
p222
g74
tp223
F0.2
s(S'U14:POS'
p224
S'B-SBAR'
p225
tp226
F0.1
s(S'U03:Institute'
p227
g11
tp228
F-0.1
s(S'U06:outlook/for'
p229
S'I-NP'
p230
tp231
F0.1
s(S'U20:NN/NNS/VBP'
p232
g11
tp233
F-0.2
s(S'U00:%'
p234
g11
tp235
F-0.1
s(S'U01:sign'
p236
g11
tp237
F-0.1
s(S'U03:sterling'
p238
g11
tp239
F-0.3
s(S'U06:If/there'
p240
g11
tp241
F-0.1
s(S'U18:JJ/IN'
p242
g74
tp243
F0.1
s(S'U06:has/been'
p244
g11
tp245
F-0.1
s(S'U00:tomorrow'
p246
S'B-VP'
p247
tp248
F0.1
s(S'U18:NNS/,'
p249
g11
tp250
F-0.1
s(S'U22:NN/./_B+1'
p251
g11
tp252
F-0.1
s(S'U04:increase'
p253
g11
tp254
F-0.1
s(S'U17:VBN/VBN'
p255
g11
tp256
F-0.1
s(S'U15:NNP/NNP'
p257
g74
tp258
F0.6
s(S'U03:October'
p259
g11
tp260
F-0.1
s(S'U06:fairly/pessimistic'
p261
g11
tp262
F-0.1
s(S'U05:data/to'
p263
g11
tp264
F-0.1
s(S'U05:and/August'
p265
S'I-NP'
p266
tp267
F0.1
s(S'U06:registered/in'
p268
S'B-VP'
p269
tp270
F0.1
s(S'U03:prevent'
p271
S'I-VP'
p272
tp273
F0.1
s(S'U01:Simon'
p274
g11
tp275
F-0.1
s(S'U10:VBN'
p276
g11
tp277
F-0.9
s(S'U22:NN/,/EX'
p278
S'I-NP'
p279
tp280
F0.1
s(S'U22:,/NNS/CC'
p281
g11
tp282
F-0.1
s(S'U15:JJ/CD'
p283
g11
tp284
F-0.1
s(S'U20:VB/DT/RB'
p285
g11
tp286
F-0.1
s(S'U03:-LRB-'
p287
g74
tp288
F0.1
s(g90
S'B-PP'
p289
tp290
F0.2
s(S'U21:#/CD/CD'
p291
g93
tp292
F0.2
s(S'U05:restated/commitment'
p293
S'I-NP'
p294
tp295
F0.1
s(S'U02:boost'
p296
g160
tp297
F0.1
s(S'U04:base'
p298
g64
tp299
F0.1
s(S'U22:NN/VBP/RB'
p300
g11
tp301
F-0.1
s(S'U02:Chancellor'
p302
g74
tp303
F0.1
s(S'U06:lot/of'
p304
g11
tp305
F-0.1
s(S'U03:%'
p306
S'I-NP'
p307
tp308
F0.1
s(g63
g11
tp309
F-0.1
s(S'U20:IN/NNP/CD'
p310
g11
tp311
F-0.1
s(S'U16:_B-1/NNP'
p312
g74
tp313
F0.1
s(S'U22:NN/IN/NN'
p314
g11
tp315
F-0.4
s(S'U21:JJ/NN/VBZ'
p316
g11
tp317
F-0.1
s(S'U00:Midland'
p318
S'I-NP'
p319
tp320
F0.1
s(S'U22:,/NNP/NN'
p321
g74
tp322
F0.1
s(S'U04:August'
p323
g11
tp324
F-0.1
s(S"U01:'s"
p325
g11
tp326
F-0.4
s(S'U18:TO/VB'
p327
S'I-VP'
p328
tp329
F0.3
s(S'U20:VBN/NN/TO'
p330
g169
tp331
F0.1
s(S'U21:RB/IN/DT'
p332
S'B-PP'
p333
tp334
F0.2
s(S'U05:Midland/Montagu'
p335
S'I-NP'
p336
tp337
F0.1
s(S'U18:NN/VBN'
p338
S'I-NP'
p339
tp340
F0.1
s(S'U03:and'
p341
S'I-NP'
p342
tp343
F0.2
s(S'U01:Forecasts'
p344
g11
tp345
F-0.1
s(S'U14:DT'
p346
S'I-ADJP'
p347
tp348
F0.1
s(S'U06:said/there'
p349
S'B-VP'
p350
tp351
F0.1
s(S'U06:to/show'
p352
S'B-VP'
p353
tp354
F0.1
s(S'U02:about'
p355
S'B-PP'
p356
tp357
F0.1
s(S'U03:Nigel'
p358
g82
tp359
F0.1
s(S'U22:NNS/IN/NNP'
p360
g11
tp361
F-0.1
s(S'U02:the'
p362
g74
tp363
F0.1
s(S'U22:VBZ/VBN/DT'
p364
g11
tp365
F-0.1
s(g41
g11
tp366
F-0.1
s(S'U21:RB/JJ/IN'
p367
g347
tp368
F0.1
s(S'U21:CD/(/$'
p369
g74
tp370
F0.1
s(S'U12:RBq'
p371
g11
tp372
F-0.7
s(g66
g74
tp373
F0.2
s(S'U20:NNP/NNP/NNP'
p374
g30
tp375
F0.3
s(S'U14:NN'
p376
S'I-VP'
p377
tp378
F0.4
s(S'U20:DT/VBZ/VBN'
p379
g11
tp380
F-0.1
s(S'U20:IN/PRP$/JJ'
p381
g172
tp382
F0.1
s(S'U01:expected'
p383
S'I-VP'
p384
tp385
F0.1
s(S'U06:freefall/in'
p386
g11
tp387
F-0.1
s(S'U04:-RRB-'
p388
g11
tp389
F-0.1
s(S'U16:PRP$/NNP'
p390
S'I-NP'
p391
tp392
F0.1
s(S'U05:a/freefall'
p393
S'I-NP'
p394
tp395
F0.1
s(S'U04:continued'
p396
g74
tp397
F0.1
s(S'U00:very'
p398
g11
tp399
F-0.2
s(S'U03:a'
p400
g169
tp401
F0.2
s(S'U17:NNP/,'
p402
g11
tp403
F-0.5
s(S'U17:NNS/VBP'
p404
S'I-NP'
p405
tp406
F0.3
s(S'U04:government'
p407
g11
tp408
F-0.1
s(S'U02:from'
p409
g11
tp410
F-0.3
s(S'U01:a'
p411
g11
tp412
F-0.6
s(g187
g101
tp413
F0.4
s(S'U05:Brothers/&'
p414
S'I-NP'
p415
tp416
F0.1
s(S'U02:on'
p417
g11
tp418
F-0.1
s(S'U03:European'
p419
g11
tp420
F-0.1
s(S'U00:increased'
p421
g79
tp422
F0.1
s(S'U20:NN/NNS/NNS'
p423
S'I-NP'
p424
tp425
F0.1
s(S'U05:lot/of'
p426
g11
tp427
F-0.1
s(S'U05:_B-1/``'
p428
g74
tp429
F0.2
s(S'U01:sharp'
p430
S'I-NP'
p431
tp432
F0.1
s(g323
S'B-VP'
p433
tp434
F0.1
s(S'U16:JJ/IN'
p435
S'B-PP'
p436
tp437
F0.2
s(S'U10:NN'
p438
g108
tp439
F0.6
s(S'U22:TO/DT/NN'
p440
g11
tp441
F-0.1
s(S'U20:CC/JJ/NNS'
p442
g11
tp443
F-0.1
s(S'U01:near-record'
p444
g11
tp445
F-0.1
s(S'U21:NNP/NNP/NNP'
p446
g11
tp447
F-0.2
s(S'U04:July'
p448
S'I-NP'
p449
tp450
F0.1
s(S'U13:TO'
p451
g328
tp452
F0.3
s(S'U21:RB/RB/IN'
p453
g96
tp454
F0.1
s(S'U17:CD/CD'
p455
g93
tp456
F0.2
s(S'U20:DT/NNS/IN'
p457
S'B-PP'
p458
tp459
F0.1
s(S'U21:DT/NN/VBG'
p460
g88
tp461
F0.1
s(S'U15:CC/JJ'
p462
S'I-NP'
p463
tp464
F0.2
s(S'U05:there/is'
p465
g155
tp466
F0.2
s(S'U10:EX'
p467
g11
tp468
F-0.1
s(S'U15:VBG/NN'
p469
S'B-PP'
p470
tp471
F0.1
s(S'U04:prevent'
p472
g11
tp473
F-0.1
s(S'U18:RB/VBN'
p474
g11
tp475
F-0.1
s(S'U20:CC/NNS/VBP'
p476
g11
tp477
F-0.1
s(S'U20:DT/NN/NNS'
p478
S'I-NP'
p479
tp480
F0.1
s(S'U22:CC/JJ/NN'
p481
g11
tp482
F-0.1
s(S"U18:''/VBD"
p483
g11
tp484
F-0.2
s(S'U14:CD'
p485
g11
tp486
F-0.8
s(S'U13:EX'
p487
g350
tp488
F0.1
s(S'U06:``/The'
p489
g11
tp490
F-0.1
s(S'U00:from'
p491
g172
tp492
F0.2
s(S'U17:NN/CC'
p493
g342
tp494
F0.2
s(S'U00:he'
p495
S'B-ADJP'
p496
tp497
F0.1
s(S'U22:IN/DT/NN'
p498
g11
tp499
F-0.5
s(S'U22:TO/CD/NN'
p500
g11
tp501
F-0.1
s(S'U01:number'
p502
g11
tp503
F-0.1
s(S'U15:NNP/CC'
p504
g11
tp505
F-0.1
s(S'U00:underlying'
p506
g470
tp507
F0.1
s(S'U21:CD/CD/NN'
p508
g339
tp509
F0.2
s(S'U20:_B-1/DT/NNP'
p510
S'I-NP'
p511
tp512
F0.1
s(S'U20:DT/NN/JJ'
p513
g11
tp514
F-0.1
s(S'U03:reported'
p515
S'I-NP'
p516
tp517
F0.1
s(S'U20:VBG/NN/IN'
p518
g11
tp519
F-0.1
s(S'U03:deficits'
p520
g11
tp521
F-0.1
s(S'U14:VBZ'
p522
g47
tp523
F0.2
s(S'U16:NNS/,'
p524
g74
tp525
F0.1
s(S'U17:VBD/EX'
p526
g11
tp527
F-0.1
s(S'U14:VB'
p528
g328
tp529
F0.3
s(S'U18:POS/VBN'
p530
g30
tp531
F0.1
s(S'U16:MD/VB'
p532
g11
tp533
F-0.1
s(S'U05:Institute/.'
p534
g11
tp535
F-0.1
s(S'U20:JJ/NN/VBZ'
p536
S'B-VP'
p537
tp538
F0.1
s(S'U21:NNS/TO/VB'
p539
g11
tp540
F-0.1
s(S'U13:CD'
p541
g172
tp542
F0.5
s(S'U00:another'
p543
g431
tp544
F0.2
s(S'B:I-NP'
p545
g169
tp546
F1.8
s(S'U20:#/CD/CD'
p547
g339
tp548
F0.2
s(S'U01:,'
p549
g69
tp550
F0.1
s(S'U00:on'
p551
g11
tp552
F-0.1
s(S'U20:NN/NN/VBZ'
p553
g11
tp554
F-0.1
s(S'U18:VBD/NNP'
p555
g74
tp556
F0.2
s(S"U05:,/''"
p557
g11
tp558
F-0.2
s(S'U01:the'
p559
g11
tp560
F-1.6
s(S'U22:NNP/NN/IN'
p561
g11
tp562
F-0.1
s(S'U16:CD/CD'
p563
g11
tp564
F-0.4
s(S'U14:NNPS'
p565
g11
tp566
F-0.1
s(S'U03:of'
p567
g74
tp568
F0.1
s(S'U02:that'
p569
g11
tp570
F-0.1
s(S'U00:his'
p571
S'I-NP'
p572
tp573
F0.1
s(S'U13:VBD'
p574
g74
tp575
F0.3
s(S'U00:new'
p576
g11
tp577
F-0.1
s(S'U11:_B-1'
p578
g74
tp579
F0.4
s(S'U03:monetary'
p580
S'I-NP'
p581
tp582
F0.1
s(S'U01:any'
p583
g11
tp584
F-0.1
s(g10
g42
tp585
F0.1
s(S'U00:has'
p586
g11
tp587
F-0.2
s(S'U02:substantial'
p588
g11
tp589
F-0.1
s(S'U21:NN/,/EX'
p590
g74
tp591
F0.1
s(S'U21:CD/NN/NN'
p592
g11
tp593
F-0.1
s(S'U20:JJ/NNS/.'
p594
g11
tp595
F-0.1
s(S'U00:current'
p596
g433
tp597
F0.1
s(S'U05:pound/is'
p598
S'B-VP'
p599
tp600
F0.1
s(S'U02:capital'
p601
g11
tp602
F-0.1
s(S'U16:NNP/NNPS'
p603
g11
tp604
F-0.1
s(S'U05:,/fail'
p605
g11
tp606
F-0.1
s(S'U21:DT/VBZ/VBN'
p607
g85
tp608
F0.1
s(S'U15:VBG/PRP'
p609
g181
tp610
F0.1
s(S'U20:IN/DT/NN'
p611
g88
tp612
F0.5
s(S'U14:NNS'
p613
g11
tp614
F-1.2
s(S'U01:Institute'
p615
g11
tp616
F-0.1
s(S'U16:VBP/RB'
p617
g11
tp618
F-0.2
s(S'U02:being'
p619
g11
tp620
F-0.1
s(S'U10:POS'
p621
g294
tp622
F0.3
s(S'U21:JJ/NN/NNS'
p623
g11
tp624
F-0.1
s(S'U16:NNS/CC'
p625
g74
tp626
F0.1
s(S'U03:level'
p627
g11
tp628
F-0.1
s(S'U14:VBN'
p629
g11
tp630
F-0.6
s(S'U16:NN/VBG'
p631
S'B-VP'
p632
tp633
F0.1
s(S'U05:the/data'
p634
S'I-NP'
p635
tp636
F0.1
s(S'U18:NNS/IN'
p637
g11
tp638
F-0.1
s(S'U00:industry'
p639
g11
tp640
F-0.1
s(S'U00:no'
p641
g225
tp642
F0.1
s(S'U16:PRP/TO'
p643
g11
tp644
F-0.1
s(S'U18:NN/IN'
p645
g74
tp646
F0.1
s(S'U00:``'
p647
g22
tp648
F0.1
s(g300
S'I-NP'
p649
tp650
F0.1
s(S'U11:RB'
p651
g347
tp652
F0.1
s(S'U16:DT/RB'
p653
g11
tp654
F-0.1
s(S'U04:a'
p655
g11
tp656
F-0.5
s(S'B:I-NP'
p657
g74
tp658
F1.7
s(S'U21:VBZ/RB/JJ'
p659
g11
tp660
F-0.1
s(S'U10:PRP'
p661
g496
tp662
F0.1
s(S'U01:monetary'
p663
g11
tp664
F-0.1
s(S'U16:NN/IN'
p665
g11
tp666
F-1.9
s(S'U00:data'
p667
g11
tp668
F-0.1
s(S'U06:been/eroded'
p669
g11
tp670
F-0.1
s(S'U02:$'
p671
g14
tp672
F0.1
s(S'U00:substantial'
p673
g11
tp674
F-0.1
s(S'U02:expect'
p675
S'B-VP'
p676
tp677
F0.1
s(S'U21:NNP/NNPS/CC'
p678
g11
tp679
F-0.1
s(S'U16:JJ/NN'
p680
g108
tp681
F1.4
s(S'U04:sterling'
p682
g394
tp683
F0.3
s(S'U22:VBN/IN/DT'
p684
g11
tp685
F-0.1
s(S'U21:PRP$/JJ/CD'
p686
g172
tp687
F0.1
s(S'U10:NNP'
p688
g11
tp689
F-2.2
s(S'U17:VBP/VBN'
p690
S'B-VP'
p691
tp692
F0.1
s(S'U01:%'
p693
S'I-NP'
p694
tp695
F0.1
s(S'U15:_B-1/NNP'
p696
S'B-PP'
p697
tp698
F0.1
s(S'U05:topped/only'
p699
S'B-ADVP'
p700
tp701
F0.1
s(S'U04:rates'
p702
g8
tp703
F0.1
s(S'U04:forced'
p704
g11
tp705
F-0.1
s(S'U21:TO/VB/DT'
p706
g377
tp707
F0.6
s(S'U21:NNS/IN/DT'
p708
g11
tp709
F-0.1
s(S'U01:fail'
p710
S'I-VP'
p711
tp712
F0.1
s(S'U02:Joshi'
p713
S'I-NP'
p714
tp715
F0.1
s(S'U16:JJ/CD'
p716
g11
tp717
F-0.1
s(S'U02:past'
p718
S'I-NP'
p719
tp720
F0.1
s(S'U20:VBD/NNP/NNP'
p721
g11
tp722
F-0.2
s(S'U16:DT/#'
p723
g74
tp724
F0.1
s(S'U10:PRP$'
p725
g11
tp726
F-0.2
s(S'U04:the'
p727
g74
tp728
F0.1
s(S'U05:outlook/for'
p729
g178
tp730
F0.1
s(S'U18:(/$'
p731
g74
tp732
F0.1
s(g263
g353
tp733
F0.1
s(S'U20:IN/DT/NNP'
p734
g82
tp735
F0.1
s(S'U02:economist'
p736
g11
tp737
F-0.3
s(S'U01:inflows'
p738
g74
tp739
F0.1
s(S'U05:level/to'
p740
g11
tp741
F-0.1
s(S'U20:NN/JJ/NN'
p742
g11
tp743
F-0.1
s(S'U22:NN/TO/VB'
p744
g694
tp745
F0.2
s(S'U06:for/September'
p746
g11
tp747
F-0.1
s(S'U14:VBG'
p748
S'I-NP'
p749
tp750
F0.1
s(S'U04:very'
p751
g649
tp752
F0.1
s(S'U15:DT/RB'
p753
g11
tp754
F-0.1
s(S'U13:VBP'
p755
g11
tp756
F-0.4
s(S'U15:NNP/,'
p757
g11
tp758
F-0.2
s(S'U22:VBZ/DT/NN'
p759
g155
tp760
F0.1
s(S'U22:JJ/NNS/.'
p761
S'I-NP'
p762
tp763
F0.1
s(S'U21:NN/./_B+1'
p764
g11
tp765
F-0.1
s(S'U13:POS'
p766
g30
tp767
F0.3
s(S'U20:VBZ/DT/NN'
p768
g11
tp769
F-0.1
s(S'U01:same'
p770
g11
tp771
F-0.1
s(S'U00:_B-1'
p772
g11
tp773
F-0.7
s(S'U17:NNP/NNP'
p774
g11
tp775
F-0.4
s(S'U21:NN/CC/NN'
p776
g11
tp777
F-0.1
s(S'U02:U.K.'
p778
g11
tp779
F-0.1
s(S'U15:_B-1/NNS'
p780
g11
tp781
F-0.1
s(S'U21:NNS/IN/NN'
p782
g11
tp783
F-0.1
s(S'U02:are'
p784
S'B-VP'
p785
tp786
F0.2
s(S'U02:show'
p787
g11
tp788
F-0.2
s(S'U17:VBZ/DT'
p789
g155
tp790
F0.2
s(S'U10:RB'
p791
S'I-NP'
p792
tp793
F0.1
s(g138
g74
tp794
F0.2
s(S'U05:pound/,'
p795
g11
tp796
F-0.1
s(S'U13:VB'
p797
g194
tp798
F0.5
s(S'U06:range/widely'
p799
S'B-VP'
p800
tp801
F0.1
s(S'U21:NN/NN/VBZ'
p802
g11
tp803
F-0.1
s(S'U18:NNP/POS'
p804
g225
tp805
F0.1
s(S'U06:of/October'
p806
S'B-PP'
p807
tp808
F0.1
s(S'U20:_B-1/NN/IN'
p809
g11
tp810
F-0.1
s(S'U22:NNS/TO/CD'
p811
S'I-NP'
p812
tp813
F0.1
s(S'U05:capital/goods'
p814
g11
tp815
F-0.1
s(S'U20:NN/,/VB'
p816
g247
tp817
F0.1
s(S'U11:JJ'
p818
g436
tp819
F0.2
s(S'U00:The'
p820
g11
tp821
F-0.2
s(S'U02:transforming'
p822
g11
tp823
F-0.1
s(S'U05:their/current'
p824
g11
tp825
F-0.1
s(S'U13:,'
p826
S'I-NP'
p827
tp828
F0.9
s(S'U10:,'
p829
g436
tp830
F0.1
s(S'U18:RB/,'
p831
g11
tp832
F-0.1
s(S'U03:underlying'
p833
g11
tp834
F-0.1
s(S'U04:near-record'
p835
g11
tp836
F-0.1
s(g98
g88
tp837
F0.1
s(S'U22:JJ/NN/VBD'
p838
g11
tp839
F-0.1
s(S'U04:Baring'
p840
S'I-NP'
p841
tp842
F0.1
s(g81
g11
tp843
F-0.1
s(S'U03:there'
p844
S'B-SBAR'
p845
tp846
F0.1
s(S'U01:widely'
p847
g11
tp848
F-0.2
s(S'U06:are/topped'
p849
g691
tp850
F0.1
s(S'U15:PRP$/JJ'
p851
g11
tp852
F-0.1
s(S'U04:Nomura'
p853
S'I-NP'
p854
tp855
F0.1
s(S'U06:noted/Simon'
p856
S'B-VP'
p857
tp858
F0.1
s(S'U03:being'
p859
g11
tp860
F-0.1
s(S'U21:NNS/VBP/RB'
p861
g800
tp862
F0.1
s(S'U11:TO'
p863
g377
tp864
F0.8
s(S'U10:NN'
p865
g133
tp866
F0.1
s(S'U13:VBG'
p867
S'B-VP'
p868
tp869
F0.2
s(S'U15:CC/DT'
p870
g11
tp871
F-0.1
s(S'U04:and'
p872
g11
tp873
F-0.4
s(S'U00:policy'
p874
g11
tp875
F-0.2
s(S'U13:#'
p876
g74
tp877
F0.1
s(S'U11:NNS'
p878
S'B-VP'
p879
tp880
F0.5
s(S'U21:DT/NN/,'
p881
g827
tp882
F0.1
s(S'U10:_B-1'
p883
g697
tp884
F0.3
s(S'B:B-NP'
p885
g289
tp886
F0.5
s(S'U10:``'
p887
g22
tp888
F0.1
s(g29
g11
tp889
F-0.1
s(g84
g11
tp890
F-0.1
s(S'U16:NNP/NN'
p891
g854
tp892
F0.4
s(S'U20:NN/NN/NNS'
p893
g11
tp894
F-0.1
s(S'U14:NNS'
p895
g74
tp896
F0.2
s(S'U06:very/marked'
p897
S'I-NP'
p898
tp899
F0.1
s(S'U17:VBZ/RB'
p900
g11
tp901
F-0.2
s(S'U01:account'
p902
g433
tp903
F0.1
s(S'U05:_B-1/Chancellor'
p904
g11
tp905
F-0.1
s(S'U06:new/policy'
p906
S'I-NP'
p907
tp908
F0.1
s(S'U11:DT'
p909
g85
tp910
F0.1
s(S'U15:DT/VBZ'
p911
g11
tp912
F-0.1
s(S'U18:NN/.'
p913
g11
tp914
F-0.1
s(S'U21:JJ/NN/,'
p915
S'I-NP'
p916
tp917
F0.2
s(S'U15:JJ/NN'
p918
g537
tp919
F0.2
s(S'U16:VBN/VBN'
p920
S'I-VP'
p921
tp922
F0.1
s(S'U22:VBZ/RB/VBN'
p923
g11
tp924
F-0.1
s(S'U05:improvement/from'
p925
g11
tp926
F-0.2
s(S'U20:NN/TO/VB'
p927
S'I-VP'
p928
tp929
F0.2
s(S'U14:RB'
p930
g785
tp931
F0.2
s(S'U16:VBZ/VBG'
p932
S'I-VP'
p933
tp934
F0.1
s(S'U12:.q'
p935
g11
tp936
F-1.0
s(S'U11:RB'
p937
g74
tp938
F0.1
s(S'U04:policy'
p939
g11
tp940
F-0.1
s(S'U06:for/release'
p941
g436
tp942
F0.1
s(S'U17:MD/VB'
p943
S'B-VP'
p944
tp945
F0.1
s(S'U17:VBD/IN'
p946
g11
tp947
F-0.1
s(S'U15:VBN/TO'
p948
g377
tp949
F0.3
s(S'U05:1988/.'
p950
g74
tp951
F0.1
s(S'U18:NNS/NNS'
p952
g11
tp953
F-0.1
s(S'U05:number/,'
p954
g11
tp955
F-0.1
s(S'U05:sign/that'
p956
g11
tp957
F-0.1
s(S'U00:foreign'
p958
S'I-NP'
p959
tp960
F0.1
s(S'U06:and/foreign'
p961
g74
tp962
F0.1
s(S'U22:NNS/VBP/DT'
p963
g11
tp964
F-0.1
s(g859
g88
tp965
F0.1
s(S'U04:U.K.'
p966
S'I-NP'
p967
tp968
F0.1
s(S'U04:of'
p969
g458
tp970
F0.1
s(S'U21:(/$/CD'
p971
g11
tp972
F-0.1
s(S'U22:NN/NNS/NNS'
p973
S'I-NP'
p974
tp975
F0.1
s(S'U01:Research'
p976
g11
tp977
F-0.1
s(S'U10:JJ'
p978
g74
tp979
F0.5
s(S'U03:heavily'
p980
g133
tp981
F0.1
s(S'U01:to'
p982
g377
tp983
F0.8
s(S'U22:(/$/CD'
p984
g11
tp985
F-0.1
s(S'U17:IN/PRP$'
p986
S'B-PP'
p987
tp988
F0.2
s(S'U22:NNPS/CC/NNP'
p989
S'I-NP'
p990
tp991
F0.1
s(S'U16:CD/)'
p992
g11
tp993
F-0.1
s(S'U04:16'
p994
g11
tp995
F-0.1
s(g686
g11
tp996
F-0.1
s(S'U18:IN/DT'
p997
g79
tp998
F0.2
s(S'U02:only'
p999
g11
tp1000
F-0.1
s(S'U22:VBD/IN/NNP'
p1001
g11
tp1002
F-0.1
s(S'U03:figure'
p1003
S'I-NP'
p1004
tp1005
F0.1
s(S'U12:VBNq'
p1006
S'I-NP'
p1007
tp1008
F0.2
s(S'U21:NN/IN/PRP$'
p1009
g987
tp1010
F0.1
s(S'U22:CC/NNP/POS'
p1011
S'I-NP'
p1012
tp1013
F0.1
s(S'U00:trade'
p1014
S'B-PP'
p1015
tp1016
F0.1
s(S'U01:commitment'
p1017
g169
tp1018
F0.1
s(S'U20:CC/NNP/,'
p1019
g11
tp1020
F-0.1
s(S'U01:deficit'
p1021
g74
tp1022
F0.1
s(S'U21:NNS/VBP/VBG'
p1023
g11
tp1024
F-0.1
s(S'U12:,q'
p1025
g74
tp1026
F1.4
s(S'U22:NN/CC/NN'
p1027
S'I-NP'
p1028
tp1029
F0.1
s(S'U18:VBN/VBD'
p1030
g11
tp1031
F-0.1
s(S'U06:,/economists'
p1032
g11
tp1033
F-0.1
s(S'U06:week/.'
p1034
g11
tp1035
F-0.1
s(S'U17:,/JJ'
p1036
g74
tp1037
F0.3
s(g293
g11
tp1038
F-0.1
s(S"U06:August/'s"
p1039
g11
tp1040
F-0.1
s(S'U10:PRP'
p1041
g11
tp1042
F-0.2
s(S'U02:defend'
p1043
g928
tp1044
F0.1
s(S'U15:VB/DT'
p1045
g394
tp1046
F0.7
s(S'U10:CC'
p1047
g74
tp1048
F0.1
s(S'U20:NNP/NNP/,'
p1049
g11
tp1050
F-0.4
s(S"U21:NN/,/''"
p1051
g11
tp1052
F-0.2
s(S'U06:for/sterling'
p1053
g11
tp1054
F-0.2
s(S'U05:another/sharp'
p1055
g11
tp1056
F-0.1
s(S'U21:NN/IN/NNP'
p1057
S'B-PP'
p1058
tp1059
F0.6
s(S'U15:JJ/NN'
p1060
S'B-SBAR'
p1061
tp1062
F0.1
s(S'U01:Sanjay'
p1063
g714
tp1064
F0.1
s(S'U10:DT'
p1065
g632
tp1066
F0.3
s(S'U18:VB/NN'
p1067
g11
tp1068
F-0.1
s(S'U17:CD/.'
p1069
g213
tp1070
F0.1
s(S'U16:NN/.'
p1071
g11
tp1072
F-0.1
s(S'U05:an/awful'
p1073
g11
tp1074
F-0.1
s(S'U05:itself/to'
p1075
g11
tp1076
F-0.1
s(S'U00:few'
p1077
g676
tp1078
F0.1
s(S'U02:and'
p1079
g11
tp1080
F-0.4
s(S'U21:DT/RB/VBN'
p1081
g898
tp1082
F0.1
s(S'U04:imports'
p1083
g11
tp1084
F-0.1
s(S'U14:VBZ'
p1085
g350
tp1086
F0.1
s(S'U20:CC/JJ/NN'
p1087
g463
tp1088
F0.1
s(S'U01:awful'
p1089
g11
tp1090
F-0.1
s(S'U00:consumer'
p1091
g11
tp1092
F-0.1
s(g569
g225
tp1093
F0.1
s(S'U20:_B-1/``/IN'
p1094
g11
tp1095
F-0.1
s(S'U01:``'
p1096
g11
tp1097
F-0.1
s(S'U06:trade/figure'
p1098
g1004
tp1099
F0.1
s(S'U22:VB/NNS/.'
p1100
g160
tp1101
F0.1
s(g536
g11
tp1102
F-0.1
s(S'U04:,'
p1103
g800
tp1104
F0.1
s(S'B:B_-1'
p1105
g74
tp1106
F0.4
s(S'U06:rates/to'
p1107
g812
tp1108
F0.1
s(S'U05:a/very'
p1109
g11
tp1110
F-0.1
s(S"U22:,/''/VBD"
p1111
g11
tp1112
F-0.2
s(S'U04:by'
p1113
S'I-VP'
p1114
tp1115
F0.2
s(g1094
g845
tp1116
F0.1
s(g396
g11
tp1117
F-0.1
s(S'U10:NNP'
p1118
g1058
tp1119
F0.2
s(g734
g11
tp1120
F-0.1
s(S'U10:NNP'
p1121
S'B-ADJP'
p1122
tp1123
F0.1
s(S'U02:PLC'
p1124
g11
tp1125
F-0.1
s(S'U21:DT/#/CD'
p1126
g11
tp1127
F-0.3
s(S'U03:Nomura'
p1128
g11
tp1129
F-0.1
s(S'U05:Chris/Dillow'
p1130
g11
tp1131
F-0.1
s(S'U04:said'
p1132
S'I-NP'
p1133
tp1134
F0.1
s(S'U01:House'
p1135
S'I-NP'
p1136
tp1137
F0.1
s(S'U16:VBN/TO'
p1138
g11
tp1139
F-0.3
s(S'U21:DT/NN/POS'
p1140
S'I-NP'
p1141
tp1142
F0.1
s(S'U04:economists'
p1143
g11
tp1144
F-0.2
s(g822
g933
tp1145
F0.1
s(S'U21:VBZ/VBN/TO'
p1146
g11
tp1147
F-0.1
s(S"U03:'s"
p1148
g11
tp1149
F-0.3
s(S"U15:,/''"
p1150
g11
tp1151
F-0.2
s(S'U02:lot'
p1152
g11
tp1153
F-0.1
s(S'U05:the/past'
p1154
g11
tp1155
F-0.1
s(S'U14:JJ'
p1156
S'I-NP'
p1157
tp1158
F0.4
s(S'U03:,'
p1159
g827
tp1160
F0.9
s(S'U02:very'
p1161
g11
tp1162
F-0.2
s(S'U05:are/topped'
p1163
g11
tp1164
F-0.1
s(S'U00:15'
p1165
g694
tp1166
F0.1
s(S'U05:July/are'
p1167
g11
tp1168
F-0.1
s(S'U00:side'
p1169
g11
tp1170
F-0.1
s(S'U16:RB/IN'
p1171
g333
tp1172
F0.2
s(S'U01:Co.'
p1173
g74
tp1174
F0.1
s(S'U06:forced/to'
p1175
g11
tp1176
F-0.1
s(S'U01:economist'
p1177
g11
tp1178
F-0.3
s(S'U03:Baring'
p1179
g11
tp1180
F-0.1
s(S'U16:VBP/.'
p1181
g74
tp1182
F0.1
s(S'U18:VB/DT'
p1183
g194
tp1184
F0.4
s(S'U02:side'
p1185
g916
tp1186
F0.1
s(S'U06:support/for'
p1187
S'I-NP'
p1188
tp1189
F0.1
s(g495
g11
tp1190
F-0.1
s(S'U22:VBN/RB/IN'
p1191
g128
tp1192
F0.1
s(S'U17:TO/CD'
p1193
S'B-PP'
p1194
tp1195
F0.1
s(g833
g868
tp1196
F0.1
s(S'U15:_B-1/NN'
p1197
g11
tp1198
F-0.1
s(S'U06:given/continued'
p1199
g69
tp1200
F0.1
s(S'U06:at/Baring'
p1201
S'B-PP'
p1202
tp1203
F0.1
s(S'U18:IN/NN'
p1204
g394
tp1205
F0.5
s(S'U01:Midland'
p1206
g11
tp1207
F-0.2
s(S'U02:figure'
p1208
g11
tp1209
F-0.1
s(S'U22:IN/DT/#'
p1210
S'B-PP'
p1211
tp1212
F0.2
s(S'U02:to'
p1213
g272
tp1214
F0.4
s(S'U05:very/marked'
p1215
g11
tp1216
F-0.1
s(S'U14:VBZ'
p1217
g470
tp1218
F0.1
s(S'U03:fail'
p1219
g11
tp1220
F-0.1
s(S'U04:exchange'
p1221
g11
tp1222
F-0.1
s(S'U22:CC/DT/#'
p1223
g74
tp1224
F0.1
s(S'U18:NN/NNS'
p1225
g463
tp1226
F0.3
s(S'U10:NNP'
p1227
g74
tp1228
F0.8
s(S'U05:trade/figure'
p1229
g11
tp1230
F-0.1
s(S'U14:NNP'
p1231
g697
tp1232
F0.5
s(S'U18:NN/CC'
p1233
g511
tp1234
F0.2
s(S'U05:been/eroded'
p1235
g921
tp1236
F0.1
s(S'U01:policy'
p1237
S'I-NP'
p1238
tp1239
F0.1
s(S'U03:topped'
p1240
g11
tp1241
F-0.1
s(S'U02:remains'
p1242
S'B-VP'
p1243
tp1244
F0.1
s(S'U16:VBG/NN'
p1245
g11
tp1246
F-0.1
s(S'U01:Chancellor'
p1247
g11
tp1248
F-0.1
s(g21
g11
tp1249
F-0.3
s(S'U18:CD/('
p1250
g74
tp1251
F0.1
s(S'U02:by'
p1252
g11
tp1253
F-0.2
s(g615
g74
tp1254
F0.1
s(S'U17:IN/NNS'
p1255
g11
tp1256
F-0.1
s(g1242
g11
tp1257
F-0.1
s(S'U21:VBZ/VBN/DT'
p1258
g11
tp1259
F-0.1
s(S'U20:IN/DT/JJ'
p1260
g11
tp1261
F-0.5
s(S'U04:if'
p1262
S'I-NP'
p1263
tp1264
F0.1
s(S'U16:_B-1/IN'
p1265
S'B-PP'
p1266
tp1267
F0.1
s(S'U02:reckon'
p1268
g11
tp1269
F-0.1
s(S'U12:VBZq'
p1270
g11
tp1271
F-0.8
s(S'U05:%/level'
p1272
g11
tp1273
F-0.1
s(S'U22:NNP/,/VBD'
p1274
g1133
tp1275
F0.1
s(S'U21:NNP/,/VBD'
p1276
g11
tp1277
F-0.1
s(S'U20:NN/NN/,'
p1278
g11
tp1279
F-0.2
s(S'U01:&'
p1280
g1133
tp1281
F0.1
s(S'U18:EX/VBZ'
p1282
g845
tp1283
F0.1
s(g440
g169
tp1284
F0.1
s(S'U00:-LRB-'
p1285
g74
tp1286
F0.1
s(S'U11:NNPS'
p1287
g11
tp1288
F-0.1
s(S'U00:2'
p1289
g74
tp1290
F0.1
s(S'U04:Chris'
p1291
g74
tp1292
F0.1
s(S'U06:is/transforming'
p1293
g11
tp1294
F-0.1
s(S'U01:,'
p1295
g74
tp1296
F0.3
s(S'U20:VBZ/VBN/VBN'
p1297
g921
tp1298
F0.1
s(S'U01:their'
p1299
g172
tp1300
F0.1
s(S'U03:few'
p1301
g11
tp1302
F-0.1
s(S'U01:lot'
p1303
S'B-PP'
p1304
tp1305
F0.1
s(S'U17:VBP/DT'
p1306
g676
tp1307
F0.1
s(S'U17:VBN/RB'
p1308
g128
tp1309
F0.1
s(S'U04:for'
p1310
g516
tp1311
F0.1
s(S'U22:NN/VBZ/VBN'
p1312
g11
tp1313
F-0.1
s(S'U04:widely'
p1314
g479
tp1315
F0.2
s(g1049
g74
tp1316
F0.4
s(S'U02:freefall'
p1317
g11
tp1318
F-0.1
s(S'U03:figures'
p1319
g11
tp1320
F-0.1
s(S'U06:to/16'
p1321
g1194
tp1322
F0.1
s(S'U06:of/a'
p1323
S'B-PP'
p1324
tp1325
F0.1
s(S'U22:NN/JJ/NN'
p1326
g11
tp1327
F-0.1
s(S'U06:,/due'
p1328
g74
tp1329
F0.1
s(S'U12:#q'
p1330
S'I-NP'
p1331
tp1332
F0.2
s(S'U22:CC/NNS/VBP'
p1333
g11
tp1334
F-0.1
s(S'U05:Midland/Bank'
p1335
S'I-NP'
p1336
tp1337
F0.1
s(S'U05:Joshi/,'
p1338
g74
tp1339
F0.1
s(S'U02:take'
p1340
S'I-VP'
p1341
tp1342
F0.1
s(S'U03:increase'
p1343
g11
tp1344
F-0.1
s(S'U00:16'
p1345
g11
tp1346
F-0.1
s(S'U05:has/been'
p1347
g11
tp1348
F-0.1
s(S'U17:NN/VBZ'
p1349
g11
tp1350
F-0.3
s(S'U22:IN/NNS/,'
p1351
g178
tp1352
F0.1
s(S'B:B-VP'
p1353
g328
tp1354
F1.3
s(g1291
g11
tp1355
F-0.1
s(S'U03:billion'
p1356
g11
tp1357
F-0.4
s(g1154
g719
tp1358
F0.1
s(S'U13:DT'
p1359
g676
tp1360
F0.3
s(S'U13:JJ'
p1361
g496
tp1362
F0.1
s(S'U01:past'
p1363
g11
tp1364
F-0.1
s(S'U05:very/heavily'
p1365
g11
tp1366
F-0.1
s(S'U20:NN/VBZ/VBN'
p1367
g11
tp1368
F-0.2
s(S'U01:dive'
p1369
g11
tp1370
F-0.1
s(S'U21:NN/TO/DT'
p1371
g169
tp1372
F0.1
s(S'U00:widely'
p1373
g74
tp1374
F0.1
s(S'U05:to/show'
p1375
g11
tp1376
F-0.2
s(S'B:B-NP'
p1377
g74
tp1378
F0.7
s(S'U06:But/analysts'
p1379
g11
tp1380
F-0.1
s(S'U06:monetary/policy'
p1381
g11
tp1382
F-0.1
s(S'U14:NN'
p1383
g581
tp1384
F1.6
s(S"U22:NN/,/''"
p1385
g11
tp1386
F-0.1
s(S'U01:underlying'
p1387
g11
tp1388
F-0.1
s(S'U20:IN/NNP/NNPS'
p1389
g11
tp1390
F-0.1
s(S'U22:JJ/NN/IN'
p1391
g11
tp1392
F-0.3
s(S'U20:CC/NN/NNS'
p1393
S'I-NP'
p1394
tp1395
F0.1
s(S'U03:forced'
p1396
g11
tp1397
F-0.1
s(g330
g11
tp1398
F-0.1
s(S'U18:,/DT'
p1399
g336
tp1400
F0.1
s(S'U16:CC/NN'
p1401
g974
tp1402
F0.1
s(S'U16:VBN/NN'
p1403
g294
tp1404
F0.2
s(S'U06:improvement/from'
p1405
g792
tp1406
F0.2
s(S'U05:Sanjay/Joshi'
p1407
g11
tp1408
F-0.1
s(S'U15:IN/NN'
p1409
g289
tp1410
F0.2
s(g285
g898
tp1411
F0.1
s(g1299
g11
tp1412
F-0.1
s(g143
g74
tp1413
F0.1
s(g617
g133
tp1414
F0.2
s(S'U15:IN/DT'
p1415
g74
tp1416
F0.1
s(S'U06:billion/-LRB-'
p1417
g74
tp1418
F0.1
s(S'U16:POS/JJ'
p1419
g762
tp1420
F0.1
s(S'U20:VBG/VBN/TO'
p1421
g11
tp1422
F-0.1
s(S'U18:NN/VBP'
p1423
g1004
tp1424
F0.1
s(S'U04:a'
p1425
g272
tp1426
F0.2
s(S'U21:EX/VBZ/DT'
p1427
g11
tp1428
F-0.2
s(S'U22:VBP/DT/NNS'
p1429
g11
tp1430
F-0.1
s(S'U21:_B-1/NNP/IN'
p1431
g74
tp1432
F0.1
s(S'U15:CC/NNP'
p1433
g74
tp1434
F0.1
s(S'U01:restated'
p1435
g294
tp1436
F0.1
s(g180
g11
tp1437
F-0.1
s(S'U20:NNS/VBP/.'
p1438
g11
tp1439
F-0.1
s(S'U00:are'
p1440
g11
tp1441
F-0.2
s(S'U02:exchange'
p1442
g463
tp1443
F0.1
s(S'U16:NN/VBP'
p1444
g785
tp1445
F0.1
s(S'U02:monetary'
p1446
g11
tp1447
F-0.1
s(S'U10:NNS'
p1448
g125
tp1449
F0.1
s(S'U16:NN/,'
p1450
g74
tp1451
F0.6
s(S'U20:IN/NN/,'
p1452
g74
tp1453
F0.1
s(S'U18:,/NNS'
p1454
g11
tp1455
F-0.1
s(S'U04:and'
p1456
S'B-PP'
p1457
tp1458
F0.1
s(S'U03:trade'
p1459
g11
tp1460
F-0.3
s(S"U14:''"
p1461
g11
tp1462
F-0.1
s(g530
g11
tp1463
F-0.1
s(S'U01:current'
p1464
g11
tp1465
F-0.2
s(g162
g711
tp1466
F0.1
s(S'U16:DT/NNS'
p1467
g11
tp1468
F-0.2
s(g688
g30
tp1469
F0.9
s(g766
g11
tp1470
F-0.3
s(S'U15:#/CD'
p1471
g339
tp1472
F0.2
s(S'U22:CD/NN/NN'
p1473
g11
tp1474
F-0.1
s(S'U05:Simon/Briscoe'
p1475
g967
tp1476
F0.1
s(S'U16:VBD/IN'
p1477
g11
tp1478
F-0.1
s(S'U03:improvement'
p1479
g11
tp1480
F-0.2
s(S'U15:NN/NN'
p1481
g405
tp1482
F0.1
s(S'U20:NNP/NNP/NN'
p1483
g1136
tp1484
F0.1
s(g344
S'B-PP'
p1485
tp1486
F0.1
s(S'U10:VBG'
p1487
g11
tp1488
F-0.3
s(S'U21:CD/CD/('
p1489
g74
tp1490
F0.1
s(S'U01:is'
p1491
g11
tp1492
F-0.2
s(S'U00:of'
p1493
g82
tp1494
F0.5
s(S'U15:POS/VBN'
p1495
g294
tp1496
F0.1
s(S'U04:1988'
p1497
g807
tp1498
F0.1
s(S'U05:firm/monetary'
p1499
g47
tp1500
F0.1
s(S'U12:VBDq'
p1501
S'B-VP'
p1502
tp1503
F0.4
s(g210
g294
tp1504
F0.5
s(S'U17:JJ/NN'
p1505
g11
tp1506
F-1.2
s(S"U18:,/''"
p1507
g916
tp1508
F0.1
s(g721
g1157
tp1509
F0.2
s(S'U04:itself'
p1510
g11
tp1511
F-0.1
s(S'U20:NN/VBG/VBN'
p1512
S'I-VP'
p1513
tp1514
F0.1
s(S'U18:./_B+1'
p1515
g11
tp1516
F-0.8
s(S'U18:NN/NN'
p1517
g11
tp1518
F-0.4
s(S'U14:,'
p1519
g1015
tp1520
F0.3
s(S'U20:IN/NN/IN'
p1521
g289
tp1522
F0.2
s(S'U05:July/and'
p1523
g11
tp1524
F-0.1
s(S'U00:billion'
p1525
g269
tp1526
F0.1
s(S'U18:VB/DT'
p1527
g272
tp1528
F0.3
s(S'U21:,/CC/JJ'
p1529
g74
tp1530
F0.1
s(S'U01:U.K.'
p1531
g854
tp1532
F0.2
s(S'U06:economists/expect'
p1533
S'I-NP'
p1534
tp1535
F0.1
s(g904
g74
tp1536
F0.1
s(S'U20:(/$/CD'
p1537
g11
tp1538
F-0.1
s(S'U06:sign/that'
p1539
S'I-NP'
p1540
tp1541
F0.1
s(S'U16:JJ/NNP'
p1542
g11
tp1543
F-0.2
s(S'U14:VB'
p1544
g694
tp1545
F0.3
s(g1163
g128
tp1546
F0.1
s(S'U15:IN/NN'
p1547
S'B-VP'
p1548
tp1549
F0.1
s(S'U02:due'
p1550
g11
tp1551
F-0.1
s(S'U01:figures'
p1552
g800
tp1553
F0.1
s(g1371
g11
tp1554
F-0.1
s(g1347
g1114
tp1555
F0.1
s(S'U22:JJ/NN/CC'
p1556
g11
tp1557
F-0.1
s(S'U22:,/PRP/VBZ'
p1558
g11
tp1559
F-0.1
s(S'U13:NNS'
p1560
g11
tp1561
F-1.0
s(S'U20:IN/EX/VBZ'
p1562
g19
tp1563
F0.1
s(S'U17:IN/EX'
p1564
g845
tp1565
F0.1
s(S'U04:improvement'
p1566
g11
tp1567
F-0.1
s(g718
g11
tp1568
F-0.1
s(S'U15:``/DT'
p1569
g22
tp1570
F0.1
s(S'U20:_B-2/_B-1/NNP'
p1571
g11
tp1572
F-0.1
s(S'U18:VBD/JJ'
p1573
g69
tp1574
F0.1
s(S'U22:JJ/NN/NN'
p1575
S'I-NP'
p1576
tp1577
F0.2
s(S"U05:''/noted"
p1578
g857
tp1579
F0.1
s(S'U17:$/CD'
p1580
g14
tp1581
F0.1
s(S'U16:NNP/.'
p1582
g74
tp1583
F0.4
s(S'U20:JJ/NN/NNS'
p1584
g1238
tp1585
F0.1
s(S'U02:of'
p1586
g697
tp1587
F0.6
s(S'U02:level'
p1588
g694
tp1589
F0.1
s(S'U18:VBG/PRP'
p1590
S'B-VP'
p1591
tp1592
F0.1
s(S'U06:only/by'
p1593
g11
tp1594
F-0.1
s(g629
g30
tp1595
F0.4
s(S'U00:market'
p1596
g879
tp1597
F0.1
s(S'U12:MDq'
p1598
g944
tp1599
F0.1
s(S'U20:JJ/NN/IN'
p1600
g1457
tp1601
F0.3
s(S'U01:15'
p1602
g216
tp1603
F0.1
s(S"U21:,/''/VBD"
p1604
g11
tp1605
F-0.2
s(S'U11:DT'
p1606
g11
tp1607
F-3.0
s(S'U17:VB/NNS'
p1608
g160
tp1609
F0.1
s(S'U00:exchange'
p1610
g405
tp1611
F0.1
s(S'U21:_B-1/IN/DT'
p1612
g11
tp1613
F-0.1
s(S'U03:for'
p1614
g22
tp1615
F0.5
s(S'U02:manufacturing'
p1616
g11
tp1617
F-0.1
s(S'U02:firm'
p1618
g11
tp1619
F-0.1
s(S'U13:VB'
p1620
g74
tp1621
F0.1
s(S'U20:VB/NN/NNS'
p1622
g812
tp1623
F0.1
s(g984
g74
tp1624
F0.1
s(S'U01:Brothers'
p1625
g415
tp1626
F0.1
s(S'U21:VBZ/VBN/VBN'
p1627
g11
tp1628
F-0.1
s(S'U03:about'
p1629
g11
tp1630
F-0.1
s(S'U20:VB/TO/VB'
p1631
S'I-VP'
p1632
tp1633
F0.1
s(S'U00:July'
p1634
g266
tp1635
F0.1
s(g1150
g1502
tp1636
F0.2
s(g696
g11
tp1637
F-0.2
s(S'U04:figure'
p1638
g1576
tp1639
F0.1
s(S'U05:freefall/in'
p1640
g5
tp1641
F0.1
s(S'U17:NN/.'
p1642
g152
tp1643
F0.1
s(S'U12:NNPSq'
p1644
g990
tp1645
F0.1
s(g1517
g307
tp1646
F0.3
s(S'U04:show'
p1647
g635
tp1648
F0.1
s(S'U06:bad/trade'
p1649
g11
tp1650
F-0.2
s(S'U01:deficit'
p1651
g11
tp1652
F-0.3
s(S'U18:EX/MD'
p1653
g11
tp1654
F-0.1
s(S'U21:VBP/RB/RB'
p1655
g11
tp1656
F-0.1
s(S'U17:NN/,'
p1657
g11
tp1658
F-0.4
s(S'U02:,'
p1659
g74
tp1660
F1.4
s(S'U02:reported'
p1661
g11
tp1662
F-0.1
s(S'U14:IN'
p1663
g133
tp1664
F0.1
s(S'U15:VBD/JJ'
p1665
g1028
tp1666
F0.1
s(S'U02:goods'
p1667
g11
tp1668
F-0.1
s(S'U04:Co.'
p1669
g990
tp1670
F0.1
s(S'U17:VB/TO'
p1671
g247
tp1672
F0.1
s(S'U02:if'
p1673
g1061
tp1674
F0.1
s(S'U02:down'
p1675
S'I-NP'
p1676
tp1677
F0.1
s(g543
g11
tp1678
F-0.2
s(S'U01:week'
p1679
g11
tp1680
F-0.1
s(S'U05:the/pound'
p1681
g11
tp1682
F-0.2
s(S'U05:sterling/has'
p1683
g11
tp1684
F-0.1
s(S'U04:about'
p1685
g496
tp1686
F0.1
s(S'U00:account'
p1687
S'B-PP'
p1688
tp1689
F0.1
s(S'U21:NNP/VBP/VBN'
p1690
g11
tp1691
F-0.1
s(S'U05:continued/high'
p1692
S'I-NP'
p1693
tp1694
F0.1
s(S'U11:NN'
p1695
g74
tp1696
F0.8
s(S'U03:market'
p1697
g463
tp1698
F0.1
s(g520
g762
tp1699
F0.1
s(S'U00:at'
p1700
g25
tp1701
F0.2
s(S'U11:VBD'
p1702
g1688
tp1703
F0.1
s(S'U00:an'
p1704
S'I-NP'
p1705
tp1706
F0.1
s(S'U00:This'
p1707
S'I-VP'
p1708
tp1709
F0.1
s(S'U02:given'
p1710
g11
tp1711
F-0.1
s(S'U15:VBN/NN'
p1712
g11
tp1713
F-0.2
s(S'U06:trade/number'
p1714
g11
tp1715
F-0.1
s(S'U15:RB/,'
p1716
g11
tp1717
F-0.1
s(S'U11:VBN'
p1718
g700
tp1719
F0.1
s(g1707
g11
tp1720
F-0.1
s(S'U18:VBN/NN'
p1721
g11
tp1722
F-0.1
s(S'U03:foreign'
p1723
g11
tp1724
F-0.1
s(S'U20:JJ/CD/NN'
p1725
g216
tp1726
F0.1
s(S'U20:NN/IN/DT'
p1727
g11
tp1728
F-0.1
s(S'U00:for'
p1729
g1324
tp1730
F0.1
s(g1610
g11
tp1731
F-0.1
s(S'U01:16'
p1732
S'I-NP'
p1733
tp1734
F0.1
s(S'U02:chancellor'
p1735
g1141
tp1736
F0.1
s(S'U00:Baring'
p1737
g11
tp1738
F-0.1
s(S'U06:say/.'
p1739
g879
tp1740
F0.1
s(S'U18:PRP/TO'
p1741
g11
tp1742
F-0.1
s(S'U21:IN/DT/#'
p1743
g74
tp1744
F0.1
s(g1177
g1058
tp1745
F0.3
s(S'U05:registered/in'
p1746
g11
tp1747
F-0.1
s(S'U20:NN/VBD/IN'
p1748
g11
tp1749
F-0.1
s(S'U01:July'
p1750
g691
tp1751
F0.1
s(S'U04:in'
p1752
g74
tp1753
F0.1
s(g462
g11
tp1754
F-0.2
s(S'U20:NNP/,/JJ'
p1755
g11
tp1756
F-0.1
s(S'U15:NNP/,'
p1757
g350
tp1758
F0.1
s(S'U13:VBD'
p1759
g69
tp1760
F0.1
s(g1223
g11
tp1761
F-0.1
s(S'U01:trade'
p1762
g11
tp1763
F-0.4
s(S'U04:a'
p1764
g353
tp1765
F0.1
s(S'U20:JJ/NN/CC'
p1766
g175
tp1767
F0.1
s(S'U05:failure/to'
p1768
S'B-VP'
p1769
tp1770
F0.1
s(g811
g11
tp1771
F-0.1
s(S'U05:same/time'
p1772
g11
tp1773
F-0.1
s(S'U20:NN/NNS/TO'
p1774
g1194
tp1775
F0.1
s(S'U03:15'
p1776
g172
tp1777
F0.1
s(S'U04:risk'
p1778
g11
tp1779
F-0.1
s(g274
g967
tp1780
F0.1
s(S'U03:-RRB-'
p1781
g74
tp1782
F0.1
s(S'U21:NN/TO/VB'
p1783
g11
tp1784
F-0.2
s(S'U20:IN/NNS/,'
p1785
g11
tp1786
F-0.1
s(S'U22:NNP/,/NNP'
p1787
g11
tp1788
F-0.1
s(S'U06:is/widely'
p1789
g11
tp1790
F-0.1
s(S'U02:be'
p1791
S'I-VP'
p1792
tp1793
F0.1
s(S'U17:./_B+1'
p1794
g74
tp1795
F1.0
s(S'U02:-LRB-'
p1796
g74
tp1797
F0.1
s(S'U16:NNS/VBP'
p1798
g879
tp1799
F0.4
s(S'U10:#'
p1800
g11
tp1801
F-0.3
s(S'U14:CC'
p1802
g74
tp1803
F0.1
s(S'U01:Dillow'
p1804
g11
tp1805
F-0.1
s(g446
g25
tp1806
F0.2
s(S'U16:VBZ/VBN'
p1807
g328
tp1808
F0.3
s(S'U02:At'
p1809
g1266
tp1810
F0.1
s(S'U16:NNP/NNP'
p1811
g30
tp1812
F1.0
s(S'U18:VBN/TO'
p1813
g11
tp1814
F-0.3
s(g500
g1194
tp1815
F0.1
s(g390
g11
tp1816
F-0.1
s(S'U05:sharp/dive'
p1817
g11
tp1818
F-0.1
s(S'U22:$/CD/CD'
p1819
g11
tp1820
F-0.1
s(S'U06:,/a'
p1821
g11
tp1822
F-0.1
s(S'U04:Bank'
p1823
g11
tp1824
F-0.1
s(S'U17:VBZ/VBN'
p1825
g537
tp1826
F0.3
s(S'U06:inflows/.'
p1827
g424
tp1828
F0.1
s(S'U17:VBP/.'
p1829
g11
tp1830
F-0.1
s(S'U05:is/transforming'
p1831
g11
tp1832
F-0.1
s(S'U18:VBD/IN'
p1833
g516
tp1834
F0.1
s(g590
g11
tp1835
F-0.1
s(S'U22:NN/NN/TO'
p1836
g216
tp1837
F0.1
s(S'U22:TO/VB/DT'
p1838
g11
tp1839
F-0.6
s(S'U04:there'
p1840
g74
tp1841
F0.2
s(S'U12:NNPq'
p1842
g74
tp1843
F0.1
s(S'U02:deficit'
p1844
g342
tp1845
F0.2
s(S'U06:Institute/.'
p1846
g11
tp1847
F-0.1
s(S'U21:RB/VBN/TO'
p1848
g11
tp1849
F-0.1
s(S'U20:NNS/TO/VB'
p1850
S'I-VP'
p1851
tp1852
F0.1
s(S'U03:if'
p1853
g431
tp1854
F0.1
s(S'U06:,/senior'
p1855
g74
tp1856
F0.1
s(S'U18:_B+1/_B+2'
p1857
g74
tp1858
F1.0
s(S'U14:NNP'
p1859
g1502
tp1860
F0.4
s(S'U04:2'
p1861
g11
tp1862
F-0.1
s(S'U02:unit'
p1863
S'I-NP'
p1864
tp1865
F0.1
s(S'U14:VBZ'
p1866
g845
tp1867
F0.1
s(g296
g11
tp1868
F-0.1
s(S'U16:NN/VBZ'
p1869
g537
tp1870
F0.4
s(S'U06:$/3.2'
p1871
g11
tp1872
F-0.1
s(g1193
g11
tp1873
F-0.1
s(S'U20:POS/JJ/NNS'
p1874
g11
tp1875
F-0.1
s(S'U05:analysts/reckon'
p1876
g11
tp1877
F-0.1
s(S'U10:IN'
p1878
g82
tp1879
F2.1
s(S'U01:helped'
p1880
g272
tp1881
F0.1
s(S'U22:NN/TO/DT'
p1882
g294
tp1883
F0.1
s(S'U17:,/PRP'
p1884
g74
tp1885
F0.1
s(S'U02:fairly'
p1886
g11
tp1887
F-0.1
s(S'U20:POS/NN/NN'
p1888
g749
tp1889
F0.1
s(S'U01:The'
p1890
g11
tp1891
F-0.2
s(S'U06:analysts/say'
p1892
g405
tp1893
F0.1
s(S'U03:fairly'
p1894
g1243
tp1895
F0.1
s(S'U03:economists'
p1896
g11
tp1897
F-0.1
s(S'U20:CD/NN/IN'
p1898
g987
tp1899
F0.2
s(S'U00:pressure'
p1900
g11
tp1901
F-0.1
s(S'U00:Britain'
p1902
g11
tp1903
F-0.1
s(S'U22:NN/JJ/NNP'
p1904
g11
tp1905
F-0.1
s(S'U14:NN'
p1906
g1122
tp1907
F0.1
s(g716
g307
tp1908
F0.1
s(S'U05:trade/number'
p1909
g279
tp1910
F0.1
s(S'U18:TO/VB'
p1911
g694
tp1912
F0.3
s(g1323
g11
tp1913
F-0.1
s(S'U00:boost'
p1914
g74
tp1915
F0.1
s(S'U20:VB/DT/JJ'
p1916
g11
tp1917
F-0.4
s(S'U22:IN/PRP$/JJ'
p1918
g11
tp1919
F-0.1
s(S'U04:defend'
p1920
g11
tp1921
F-0.1
s(S'U03:eroded'
p1922
g11
tp1923
F-0.1
s(S'U06:announce/any'
p1924
g101
tp1925
F0.1
s(S'B:B-VP'
p1926
g133
tp1927
F0.2
s(S'U22:IN/NNP/,'
p1928
g11
tp1929
F-0.1
s(S'U05:down/side'
p1930
g11
tp1931
F-0.1
s(g1208
g649
tp1932
F0.1
s(g647
g11
tp1933
F-0.1
s(S'U06:from/their'
p1934
g11
tp1935
F-0.1
s(g1204
g11
tp1936
F-0.6
s(S'U21:NN/,/NNS'
p1937
g74
tp1938
F0.1
s(S'U10:$'
p1939
g11
tp1940
F-0.1
s(g768
g1540
tp1941
F0.1
s(S'U04:on'
p1942
g11
tp1943
F-0.1
s(S'U21:CD/NN/VBN'
p1944
g11
tp1945
F-0.1
s(g1890
g22
tp1946
F0.2
s(S'U22:#/CD/CD'
p1947
g74
tp1948
F0.1
s(S'U03:16'
p1949
g11
tp1950
F-0.1
s(S'U21:NN/NNS/TO'
p1951
g812
tp1952
F0.1
s(S'U15:TO/DT'
p1953
g11
tp1954
F-0.1
s(S'U04:U.K.'
p1955
g74
tp1956
F0.1
s(S'U18:DT/NNS'
p1957
g676
tp1958
F0.1
s(S'U16:DT/NNP'
p1959
g82
tp1960
F0.2
s(S'U01:the'
p1961
g74
tp1962
F0.1
s(S'U11:NN'
p1963
g11
tp1964
F-5.1
s(g1593
g700
tp1965
F0.1
s(S'U00:chancellor'
p1966
g11
tp1967
F-0.1
s(g1165
g11
tp1968
F-0.1
s(S'U01:capital'
p1969
g1394
tp1970
F0.1
s(S"U16:,/''"
p1971
g11
tp1972
F-0.2
s(S'U02:trade'
p1973
g1004
tp1974
F0.3
s(S'U15:NN/NN'
p1975
g74
tp1976
F0.2
s(S'U01:$'
p1977
g11
tp1978
F-0.1
s(S'U05:past/week'
p1979
g11
tp1980
F-0.1
s(S'U03:Simon'
p1981
g857
tp1982
F0.1
s(g1444
g11
tp1983
F-0.1
s(S'U05:current/15'
p1984
g307
tp1985
F0.1
s(S'U18:VB/TO'
p1986
g11
tp1987
F-0.1
s(g1126
g74
tp1988
F0.1
s(g1373
g11
tp1989
F-0.2
s(S'U15:NN/VBG'
p1990
g1513
tp1991
F0.1
s(S'U03:there'
p1992
g350
tp1993
F0.1
s(S'U02:at'
p1994
g1058
tp1995
F0.2
s(S'U06:defend/the'
p1996
g11
tp1997
F-0.1
s(S'U05:fail/to'
p1998
g11
tp1999
F-0.1
s(S'U21:,/VB/TO'
p2000
g247
tp2001
F0.1
s(S'U22:NN/POS/NN'
p2002
g11
tp2003
F-0.1
s(S'U14:_B+2'
p2004
g74
tp2005
F1.0
s(g202
g1331
tp2006
F0.1
s(S'U00:take'
p2007
g11
tp2008
F-0.1
s(S'U05:account/reported'
p2009
g433
tp2010
F0.1
s(g680
g11
tp2011
F-1.4
s(S'U03:take'
p2012
g384
tp2013
F0.1
s(S'U03:expected'
p2014
g11
tp2015
F-0.1
s(S'U06:unit/of'
p2016
g1864
tp2017
F0.1
s(S'U00:,'
p2018
S'I-NP'
p2019
tp2020
F0.4
s(S'U05:exports/.'
p2021
g11
tp2022
F-0.1
s(g1333
g74
tp2023
F0.1
s(S'U15:NNP/NN'
p2024
g1058
tp2025
F0.2
s(S'U17:NN/NNS'
p2026
g959
tp2027
F0.4
s(S'U03:goods'
p2028
g11
tp2029
F-0.1
s(S'U02:fail'
p2030
g11
tp2031
F-0.1
s(S'U15:CD/NN'
p2032
g987
tp2033
F0.2
s(g1185
g11
tp2034
F-0.1
s(S'U18:NN/,'
p2035
g11
tp2036
F-0.4
s(S'U01:itself'
p2037
g11
tp2038
F-0.1
s(S'U06:on/the'
p2039
g333
tp2040
F0.1
s(S'U22:VBP/./_B+1'
p2041
g879
tp2042
F0.1
s(g7
g11
tp2043
F-0.1
s(g1825
g11
tp2044
F-0.3
s(S'U02:increased'
p2045
g1708
tp2046
F0.1
s(S'U15:VBZ/RB'
p2047
g11
tp2048
F-0.2
s(S'U03:by'
p2049
g921
tp2050
F0.1
s(S'U04:chancellor'
p2051
S'B-PP'
p2052
tp2053
F0.1
s(S'U18:,/JJ'
p2054
g1157
tp2055
F0.2
s(S'U20:DT/NN/VBG'
p2056
g11
tp2057
F-0.1
s(S'U18:NNS/CC'
p2058
g11
tp2059
F-0.1
s(S'U05:Bank/PLC'
p2060
g319
tp2061
F0.1
s(g911
g1708
tp2062
F0.1
s(S'U03:is'
p2063
S'I-NP'
p2064
tp2065
F0.2
s(S'U00:senior'
p2066
g11
tp2067
F-0.1
s(S'U06:of/the'
p2068
g697
tp2069
F0.2
s(S'U02:Dillow'
p2070
g11
tp2071
F-0.1
s(S'U12:VBq'
p2072
g377
tp2073
F0.9
s(S'U04:transforming'
p2074
g749
tp2075
F0.1
s(S'U22:IN/NNP/POS'
p2076
g225
tp2077
F0.1
s(S'U11:CD'
p2078
g1733
tp2079
F0.6
s(S'U04:over'
p2080
g11
tp2081
F-0.1
s(S'U18:IN/DT'
p2082
g96
tp2083
F0.1
s(S'U01:PLC'
p2084
g11
tp2085
F-0.1
s(S'U03:boost'
p2086
g11
tp2087
F-0.1
s(g1063
g11
tp2088
F-0.1
s(S'U17:IN/NNP'
p2089
g11
tp2090
F-1.0
s(S'U17:VBN/IN'
p2091
g921
tp2092
F0.1
s(S'U00:imports'
p2093
g11
tp2094
F-0.1
s(S'U05:government/being'
p2095
g632
tp2096
F0.1
s(S'U04:down'
p2097
g333
tp2098
F0.1
s(S'U17:JJ/IN'
p2099
g11
tp2100
F-0.2
s(S'U00:Exchequer'
p2101
g30
tp2102
F0.1
s(S'U22:VBN/IN/NNP'
p2103
g11
tp2104
F-0.1
s(S'U06:transforming/itself'
p2105
g933
tp2106
F0.1
s(g1405
g11
tp2107
F-0.2
s(S'U15:NN/POS'
p2108
g11
tp2109
F-0.1
s(S'U00:U.K.'
p2110
g11
tp2111
F-0.2
s(S'U21:NNS/VBP/.'
p2112
g879
tp2113
F0.1
s(S'U20:DT/#/CD'
p2114
g93
tp2115
F0.2
s(S'U16:NN/NNS'
p2116
g11
tp2117
F-0.6
s(g177
g11
tp2118
F-0.1
s(g1848
g42
tp2119
F0.1
s(S'U16:NN/CC'
p2120
g11
tp2121
F-0.2
s(S'U04:range'
p2122
S'I-NP'
p2123
tp2124
F0.1
s(S'U06:policy/measures'
p2125
S'I-NP'
p2126
tp2127
F0.1
s(S'U06:show/a'
p2128
g1851
tp2129
F0.2
s(g1328
g11
tp2130
F-0.1
s(S'U02:helped'
p2131
g328
tp2132
F0.1
s(S'U16:,/JJ'
p2133
g11
tp2134
F-0.1
s(S'U17:RB/JJ'
p2135
g496
tp2136
F0.1
s(S'B:B-ADVP'
p2137
g74
tp2138
F0.1
s(S'U21:NN/IN/DT'
p2139
g11
tp2140
F-0.6
s(S'U20:$/CD/CD'
p2141
g11
tp2142
F-0.1
s(S'U03:Britain'
p2143
g225
tp2144
F0.1
s(g1884
g11
tp2145
F-0.1
s(S'U16:,/VBD'
p2146
g11
tp2147
F-0.1
s(g1748
g1688
tp2148
F0.1
s(S'B:I-VP'
p2149
g272
tp2150
F0.9
s(S'U20:VB/DT/NN'
p2151
g11
tp2152
F-0.2
s(S'U04:for'
p2153
g74
tp2154
F0.1
s(g1880
g11
tp2155
F-0.1
s(S'U05:deficit/in'
p2156
g11
tp2157
F-0.1
s(S'U18:#/CD'
p2158
g74
tp2159
F0.1
s(g1459
g1576
tp2160
F0.2
s(S'U10:NNS'
p2161
g69
tp2162
F0.1
s(S'U04:has'
p2163
g47
tp2164
F0.1
s(S'U02:government'
p2165
g11
tp2166
F-0.1
s(g1898
g11
tp2167
F-0.2
s(g2058
g74
tp2168
F0.1
s(S'U11:CC'
p2169
g11
tp2170
F-0.3
s(S'U03:account'
p2171
g141
tp2172
F0.1
s(S'U10:JJ'
p2173
g537
tp2174
F0.3
s(S'U01:Thursday'
p2175
g11
tp2176
F-0.1
s(S'U16:NNP/,'
p2177
g74
tp2178
F0.6
s(S'U20:VBN/TO/VB'
p2179
g11
tp2180
F-0.3
s(S'U18:IN/DT'
p2181
g921
tp2182
F0.1
s(g1403
g11
tp2183
F-0.2
s(g1314
g11
tp2184
F-0.2
s(S'U18:CC/JJ'
p2185
g11
tp2186
F-0.1
s(S'U01:October'
p2187
g11
tp2188
F-0.1
s(g1255
g178
tp2189
F0.1
s(S'U10:_B-1'
p2190
g845
tp2191
F0.1
s(g1252
g2052
tp2192
F0.2
s(g605
g247
tp2193
F0.1
s(S'U13:RB'
p2194
g128
tp2195
F0.1
s(S'U05:the/current'
p2196
g11
tp2197
F-0.1
s(g1878
g11
tp2198
F-3.1
s(S'U11:PRP'
p2199
g11
tp2200
F-0.2
s(S'U01:economists'
p2201
g74
tp2202
F0.1
s(g1505
g47
tp2203
F1.2
s(S'U00:remains'
p2204
g11
tp2205
F-0.1
s(S'U01:Mansion'
p2206
g11
tp2207
F-0.1
s(g1499
g11
tp2208
F-0.1
s(S'U22:CD/CD/('
p2209
g11
tp2210
F-0.1
s(g1105
g11
tp2211
F-0.5
s(g1032
g74
tp2212
F0.1
s(S'U17:TO/VB'
p2213
g11
tp2214
F-0.8
s(S'U18:DT/NNS'
p2215
g74
tp2216
F0.1
s(S'U06:for/August'
p2217
g11
tp2218
F-0.1
s(S'U04:could'
p2219
g11
tp2220
F-0.1
s(S'U18:NNS/.'
p2221
g762
tp2222
F0.2
s(S'U21:DT/JJ/NN'
p2223
g719
tp2224
F1.0
s(g442
g1534
tp2225
F0.1
s(S'U14:RB'
p2226
g1851
tp2227
F0.1
s(S'U20:NN/POS/NN'
p2228
g11
tp2229
F-0.1
s(S'U21:NNS/TO/CD'
p2230
g11
tp2231
F-0.1
s(S'U04:tomorrow'
p2232
g436
tp2233
F0.1
s(S'U22:NNS/NNS/.'
p2234
g11
tp2235
F-0.1
s(g863
g11
tp2236
F-0.8
s(g2032
g11
tp2237
F-0.4
s(S'U20:``/DT/NNS'
p2238
g22
tp2239
F0.1
s(S'U13:$'
p2240
g11
tp2241
F-0.1
s(S'U04:risks'
p2242
g74
tp2243
F0.1
s(g2089
g1058
tp2244
F0.9
s(S'U06:manufacturing/industry'
p2245
g11
tp2246
F-0.1
s(S'U15:NN/,'
p2247
g74
tp2248
F0.2
s(S'U10:RB'
p2249
g333
tp2250
F0.2
s(S'U22:NNP/./_B+1'
p2251
S'I-NP'
p2252
tp2253
F0.3
s(S'U18:IN/NNP'
p2254
g433
tp2255
F0.2
s(S'U01:goods'
p2256
g11
tp2257
F-0.1
s(S'U22:NNP/,/JJ'
p2258
g11
tp2259
F-0.2
s(S'U06:gap/registered'
p2260
g11
tp2261
F-0.1
s(S'U05:deficits/.'
p2262
g74
tp2263
F0.1
s(S'U21:NN/NN/VBP'
p2264
g649
tp2265
F0.1
s(S'U03:base'
p2266
g11
tp2267
F-0.1
s(g824
g172
tp2268
F0.1
s(S'U22:NN/NN/,'
p2269
S'I-NP'
p2270
tp2271
F0.1
s(S'U18:NNS/VBP'
p2272
g11
tp2273
F-0.3
s(S'U03:from'
p2274
g11
tp2275
F-0.3
s(S'U15:JJ/NNS'
p2276
g11
tp2277
F-0.2
s(S'U00:figures'
p2278
g125
tp2279
F0.1
s(S'U05:to/prevent'
p2280
g377
tp2281
F0.1
s(S'U16:CD/('
p2282
g74
tp2283
F0.1
s(S'U06:trade/figures'
p2284
g2123
tp2285
F0.1
s(S'U05:tomorrow/,'
p2286
g74
tp2287
F0.1
s(S'U06:be/an'
p2288
g11
tp2289
F-0.1
s(g1419
g11
tp2290
F-0.1
s(g1187
g11
tp2291
F-0.1
s(S'U05:trade/figures'
p2292
g479
tp2293
F0.2
s(S'U06:helped/to'
p2294
g328
tp2295
F0.1
s(S'U01:registered'
p2296
S'B-PP'
p2297
tp2298
F0.1
s(S'U03:to'
p2299
g247
tp2300
F0.1
s(S'U18:NNP/NNPS'
p2301
g11
tp2302
F-0.1
s(S'U00:The'
p2303
g342
tp2304
F0.1
s(S'U21:NN/VBZ/RB'
p2305
g599
tp2306
F0.1
s(S'U03:are'
p2307
g649
tp2308
F0.1
s(S'U05:billion/deficit'
p2309
S'I-NP'
p2310
tp2311
F0.1
s(S'U00:been'
p2312
g11
tp2313
F-0.1
s(S'U05:side/,'
p2314
g11
tp2315
F-0.1
s(g601
g974
tp2316
F0.1
s(S'U14:VBP'
p2317
g959
tp2318
F0.3
s(S'U21:NNP/IN/DT'
p2319
g697
tp2320
F0.1
s(S'U03:3.2'
p2321
g14
tp2322
F0.1
s(S'U02:very'
p2323
g898
tp2324
F0.1
s(S'U02:time'
p2325
g11
tp2326
F-0.1
s(S'U21:NN/,/VB'
p2327
g74
tp2328
F0.1
s(S'U05:,/said'
p2329
g350
tp2330
F0.1
s(S'U05:forced/to'
p2331
g64
tp2332
F0.1
s(S'U05:House/speech'
p2333
g1136
tp2334
F0.1
s(g1647
g11
tp2335
F-0.2
s(S'U00:the'
p2336
g152
tp2337
F0.7
s(S'U01:_B-1'
p2338
g11
tp2339
F-0.5
s(S'U01:only'
p2340
g11
tp2341
F-0.1
s(S'U15:NN/VBP'
p2342
g133
tp2343
F0.1
s(g1258
g1708
tp2344
F0.1
s(S'U03:show'
p2345
g353
tp2346
F0.1
s(S'U10:,'
p2347
g2019
tp2348
F0.4
s(S'U04:support'
p2349
g11
tp2350
F-0.1
s(S'U15:,/NNS'
p2351
g11
tp2352
F-0.1
s(S'U05:2.3/billion'
p2353
S'I-NP'
p2354
tp2355
F0.1
s(S'U20:JJ/NNP/NN'
p2356
g11
tp2357
F-0.1
s(S'U20:_B-1/DT/VBZ'
p2358
g85
tp2359
F0.1
s(S'U21:DT/#/CD'
p2360
g1331
tp2361
F0.2
s(S'U15:,/PRP'
p2362
g1243
tp2363
F0.1
s(S'U11:IN'
p2364
g74
tp2365
F0.1
s(g2179
g377
tp2366
F0.3
s(g1529
g11
tp2367
F-0.1
s(S'U05:could/be'
p2368
g1792
tp2369
F0.1
s(S'U20:DT/JJ/NN'
p2370
g152
tp2371
F1.0
s(g145
g572
tp2372
F0.1
s(S'U17:``/DT'
p2373
g11
tp2374
F-0.1
s(S'U13:VBN'
p2375
g537
tp2376
F0.5
s(g1716
g74
tp2377
F0.1
s(S'U18:VBG/VBN'
p2378
g88
tp2379
F0.1
s(g1057
g11
tp2380
F-0.7
s(S'U06:exchange/market'
p2381
g463
tp2382
F0.1
s(S'U21:VBN/IN/DT'
p2383
g11
tp2384
F-0.1
s(S'U22:NNP/NN/JJ'
p2385
g572
tp2386
F0.1
s(g2141
g74
tp2387
F0.1
s(g1310
g11
tp2388
F-0.2
s(g528
g11
tp2389
F-0.7
s(g1087
g11
tp2390
F-0.1
s(S'U04:eroded'
p2391
g11
tp2392
F-0.1
s(S'U16:CD/.'
p2393
g11
tp2394
F-0.1
s(g2097
g11
tp2395
F-0.1
s(S'U18:TO/DT'
p2396
g11
tp2397
F-0.1
s(g1994
g11
tp2398
F-0.2
s(S'U18:IN/EX'
p2399
g11
tp2400
F-0.1
s(g1657
g827
tp2401
F0.4
s(g1527
g11
tp2402
F-0.7
s(S'U14:TO'
p2403
g11
tp2404
F-0.7
s(g2108
S'I-NP'
p2405
tp2406
F0.1
s(S'U13:NNP'
p2407
g82
tp2408
F0.6
s(S'U17:VBZ/VBG'
p2409
g1591
tp2410
F0.1
s(g2175
g74
tp2411
F0.1
s(g2128
g11
tp2412
F-0.2
s(g1321
g11
tp2413
F-0.1
s(S'U17:VBD/NNP'
p2414
g1502
tp2415
F0.2
s(S'U06:has/helped'
p2416
g537
tp2417
F0.1
s(S'U10:NN'
p2418
g194
tp2419
F0.6
s(S'U05:figure/are'
p2420
g785
tp2421
F0.1
s(S'U02:rates'
p2422
g812
tp2423
F0.1
s(S'U15:NNP/NNP'
p2424
g11
tp2425
F-1.0
s(g1143
g827
tp2426
F0.1
s(S'U00:and'
p2427
g463
tp2428
F0.3
s(S'U10:TO'
p2429
g581
tp2430
F0.2
s(S'U17:VBN/VBD'
p2431
g11
tp2432
F-0.1
s(S'U02:Mansion'
p2433
g391
tp2434
F0.1
s(g1857
g11
tp2435
F-1.0
s(S'U22:IN/DT/NNP'
p2436
g11
tp2437
F-0.1
s(S'U16:NNP/CC'
p2438
g1012
tp2439
F0.1
s(S'U10:VBD'
p2440
g155
tp2441
F0.1
s(S'U03:he'
p2442
g11
tp2443
F-0.1
s(S'U14:#'
p2444
g11
tp2445
F-0.3
s(S'U05:policy/has'
p2446
g537
tp2447
F0.1
s(S'U21:DT/NNS/TO'
p2448
g635
tp2449
F0.1
s(S'U03:Midland'
p2450
S'B-PP'
p2451
tp2452
F0.2
s(S'U22:NN/VBZ/VBG'
p2453
g11
tp2454
F-0.1
s(g2041
g11
tp2455
F-0.1
s(g400
g11
tp2456
F-0.6
s(S'U06:risk/of'
p2457
g11
tp2458
F-0.1
s(S'U06:At/the'
p2459
g11
tp2460
F-0.1
s(S'U12:``q'
p2461
g74
tp2462
F0.2
s(S'U03:range'
p2463
g11
tp2464
F-0.1
s(S'U15:,/EX'
p2465
g11
tp2466
F-0.1
s(S'U05:billion/gap'
p2467
g136
tp2468
F0.1
s(S'U03:exports'
p2469
g11
tp2470
F-0.1
s(g1575
g11
tp2471
F-0.2
s(S'U06:,/said'
p2472
g74
tp2473
F0.1
s(g2035
g1676
tp2474
F0.3
s(S'U16:RB/VBN'
p2475
g11
tp2476
F-0.2
s(g476
g868
tp2477
F0.1
s(g1614
g11
tp2478
F-0.7
s(S'U15:RB/RB'
p2479
g11
tp2480
F-0.1
s(S'U06:figures/for'
p2481
g11
tp2482
F-0.1
s(S'U06:at/Nomura'
p2483
g11
tp2484
F-0.1
s(S'U22:VBG/VBN/TO'
p2485
g11
tp2486
F-0.1
s(S'U12:NNPq'
p2487
g82
tp2488
F1.7
s(S'U15:NNS/,'
p2489
g11
tp2490
F-0.1
s(S'U04:_B+1'
p2491
g152
tp2492
F0.7
s(S'U17:CD/NN'
p2493
g11
tp2494
F-0.3
s(S'U20:NNPS/CC/NNP'
p2495
g11
tp2496
F-0.1
s(S'U21:NNP/NNP/NN'
p2497
g572
tp2498
F0.1
s(S'U00:billion'
p2499
g14
tp2500
F0.1
s(S'U00:_B-2'
p2501
g1266
tp2502
F0.1
s(S'U03:analysts'
p2503
g959
tp2504
F0.1
s(S'U20:IN/NN/VBZ'
p2505
g11
tp2506
F-0.1
s(S'U01:,'
p2507
g1122
tp2508
F0.1
s(g580
g11
tp2509
F-0.1
s(g236
g225
tp2510
F0.1
s(g1073
S'I-NP'
p2511
tp2512
F0.1
s(S'U18:VBN/IN'
p2513
g136
tp2514
F0.1
s(g1069
g11
tp2515
F-0.1
s(g950
g11
tp2516
F-0.1
s(S'U02:noted'
p2517
g11
tp2518
F-0.1
s(g1894
g11
tp2519
F-0.1
s(S'U21:JJ/NN/NN'
p2520
g463
tp2521
F0.3
s(S'U22:IN/EX/VBZ'
p2522
g11
tp2523
F-0.1
s(g1644
g11
tp2524
F-0.1
s(g1138
g272
tp2525
F0.3
s(S'U06:commitment/to'
p2526
g294
tp2527
F0.1
s(S'U05:are/very'
p2528
g133
tp2529
F0.1
s(S'U06:2.2/billion'
p2530
g93
tp2531
F0.1
s(S'U20:,/PRP/VBZ'
p2532
g11
tp2533
F-0.1
s(S'U04:from'
p2534
g11
tp2535
F-0.2
s(S'U04:is'
p2536
g350
tp2537
F0.1
s(g1221
g74
tp2538
F0.1
s(g349
g11
tp2539
F-0.1
s(g2146
g350
tp2540
F0.1
s(S'U06:data/to'
p2541
g635
tp2542
F0.1
s(S'U15:NN/NN'
p2543
g11
tp2544
F-0.6
s(S'U11:VBD'
p2545
g1693
tp2546
F0.1
s(S'U01:there'
p2547
g11
tp2548
F-0.3
s(g853
g11
tp2549
F-0.1
s(g1124
g319
tp2550
F0.1
s(S'U02:say'
p2551
g11
tp2552
F-0.1
s(S'U03:speech'
p2553
g11
tp2554
F-0.1
s(S'U20:NNP/CC/NNP'
p2555
g266
tp2556
F0.1
s(S'U22:NN/VBN/IN'
p2557
g136
tp2558
F0.1
s(S'U05:3.2/billion'
p2559
g11
tp2560
F-0.1
s(S'U18:NNP/,'
p2561
g1015
tp2562
F0.1
s(g513
g47
tp2563
F0.1
s(S'U04:outlook'
p2564
g356
tp2565
F0.1
s(S'U22:CD/NN/VBN'
p2566
g339
tp2567
F0.1
s(g1461
g916
tp2568
F0.1
s(S'U16:NN/VBN'
p2569
g269
tp2570
F0.1
s(S'U05:economist/for'
p2571
g2451
tp2572
F0.1
s(S'U03:increased'
p2573
g11
tp2574
F-0.1
s(S'U10:NN'
p2575
g74
tp2576
F0.5
s(S'U01:%'
p2577
g987
tp2578
F0.1
s(S'U02:improvement'
p2579
g792
tp2580
F0.2
s(S'U02:Lawson'
p2581
g30
tp2582
F0.1
s(S'U13:NNS'
p2583
g959
tp2584
F0.6
s(S'U18:NNP/.'
p2585
g11
tp2586
F-0.3
s(S'U13:DT'
p2587
g697
tp2588
F1.4
s(S'U03:capital'
p2589
g175
tp2590
F0.1
s(g240
g845
tp2591
F0.1
s(S'U02:risks'
p2592
g22
tp2593
F0.1
s(g352
g11
tp2594
F-0.2
s(S'U21:CD/NN/IN'
p2595
g11
tp2596
F-0.2
s(S'U20:DT/NN/,'
p2597
g11
tp2598
F-0.1
s(g2274
g1733
tp2599
F0.3
s(S'U22:MD/VB/DT'
p2600
g944
tp2601
F0.1
s(g2375
g11
tp2602
F-1.0
s(g2317
g11
tp2603
F-0.5
s(S'U01:Chris'
p2604
g1157
tp2605
F0.1
s(g780
g1485
tp2606
F0.1
s(S'U14:VBD'
p2607
g11
tp2608
F-0.5
s(S'U04:but'
p2609
g11
tp2610
F-0.1
s(S'U11:NN'
p2611
g47
tp2612
F1.3
s(g1959
g11
tp2613
F-0.2
s(g2420
g11
tp2614
F-0.1
s(S'U15:CC/NN'
p2615
g11
tp2616
F-0.1
s(g772
g697
tp2617
F0.3
s(S'U14:CC'
p2618
g125
tp2619
F0.1
s(S'U04:an'
p2620
g944
tp2621
F0.1
s(g1475
g11
tp2622
F-0.1
s(S'U02:but'
p2623
g74
tp2624
F0.1
s(g1922
g1114
tp2625
F0.1
s(S'U13:VBN'
p2626
g74
tp2627
F0.1
s(g1687
g11
tp2628
F-0.1
s(S'U03:side'
p2629
g1676
tp2630
F0.1
s(S'U04:firm'
p2631
g169
tp2632
F0.1
s(S'U02:restated'
p2633
g1007
tp2634
F0.1
s(S'U20:NNS/,/VBN'
p2635
g11
tp2636
F-0.1
s(S'U13:CC'
p2637
g74
tp2638
F0.1
s(S'U04:.'
p2639
g11
tp2640
F-0.8
s(S'U18:,/EX'
p2641
g279
tp2642
F0.1
s(S'U00:#'
p2643
g11
tp2644
F-0.3
s(S'U02:to'
p2645
g194
tp2646
F0.4
s(S'U00:fairly'
p2647
g11
tp2648
F-0.1
s(S'U04:Simon'
p2649
g74
tp2650
F0.1
s(S'U20:)/NN/IN'
p2651
S'B-PP'
p2652
tp2653
F0.1
s(g1003
g11
tp2654
F-0.1
s(S'U16:(/$'
p2655
g11
tp2656
F-0.1
s(g2489
g69
tp2657
F0.1
s(g1308
g11
tp2658
F-0.1
s(S'U00:_B-1'
p2659
g714
tp2660
F0.2
s(g2056
g632
tp2661
F0.1
s(S'U01:pressure'
p2662
g74
tp2663
F0.1
s(S'U21:VBD/IN/NNP'
p2664
g1688
tp2665
F0.1
s(g2072
g11
tp2666
F-1.0
s(S'U06:-RRB-/deficit'
p2667
g11
tp2668
F-0.1
s(g2060
g11
tp2669
F-0.1
s(S'U18:CC/NN'
p2670
g11
tp2671
F-0.1
s(S'U06:side/,'
p2672
g11
tp2673
F-0.1
s(S'U05:marked/improvement'
p2674
g792
tp2675
F0.1
s(S'U17:NN/VBN'
p2676
g136
tp2677
F0.1
s(g1984
g11
tp2678
F-0.1
s(S'U22:,/VB/TO'
p2679
g11
tp2680
F-0.1
s(g789
g11
tp2681
F-0.2
s(S'U18:NNP/CC'
p2682
g11
tp2683
F-0.1
s(S'U05:a/firm'
p2684
g11
tp2685
F-0.1
s(S'U00:but'
p2686
g1534
tp2687
F0.1
s(S'U04:Montagu'
p2688
g11
tp2689
F-0.1
s(S'U22:JJ/CD/NN'
p2690
g11
tp2691
F-0.1
s(S'U02:commitment'
p2692
g11
tp2693
F-0.1
s(S'U03:pessimistic'
p2694
g496
tp2695
F0.1
s(S'B:B-NP'
p2696
g82
tp2697
F5.5
s(S'U15:DT/NN'
p2698
g5
tp2699
F0.4
s(S'U18:NN/JJ'
p2700
g11
tp2701
F-0.1
s(g2670
g1028
tp2702
F0.1
s(S'U01:This'
p2703
g11
tp2704
F-0.1
s(S'U22:IN/NNP/CC'
p2705
g11
tp2706
F-0.1
s(S'U02:figures'
p2707
g11
tp2708
F-0.2
s(S'U20:TO/CD/NN'
p2709
g1733
tp2710
F0.1
s(S'U15:DT/NN'
p2711
g632
tp2712
F0.2
s(S'U04:only'
p2713
g11
tp2714
F-0.1
s(g2340
S'B-PP'
p2715
tp2716
F0.1
s(S'U17:CC/JJ'
p2717
g11
tp2718
F-0.2
s(S'U06:but/few'
p2719
g11
tp2720
F-0.1
s(g1838
g272
tp2721
F0.3
s(S"U21:''/VBD/NNP"
p2722
g11
tp2723
F-0.2
s(S'U10:VBN'
p2724
g377
tp2725
F0.3
s(S'U11:NNP'
p2726
g74
tp2727
F1.0
s(S'U04:%'
p2728
g1194
tp2729
F0.1
s(g1762
g649
tp2730
F0.4
s(S'U20:,/NNS/CC'
p2731
g11
tp2732
F-0.1
s(S'U10:NN'
p2733
g328
tp2734
F0.7
s(g594
g74
tp2735
F0.1
s(S'U21:NNP/NNP/,'
p2736
g11
tp2737
F-0.4
s(S'U21:POS/JJ/NNS'
p2738
g762
tp2739
F0.1
s(S'U11:POS'
p2740
g1007
tp2741
F0.4
s(S'U22:NNP/POS/VBN'
p2742
g11
tp2743
F-0.1
s(S'U16:IN/DT'
p2744
g74
tp2745
F0.1
s(S'U03:marked'
p2746
g11
tp2747
F-0.1
s(S'U03:week'
p2748
g719
tp2749
F0.1
s(g2120
g74
tp2750
F0.1
s(S'U21:DT/NNS/IN'
p2751
g11
tp2752
F-0.1
s(S'U20:IN/PRP$/NNP'
p2753
g391
tp2754
F0.1
s(S'U02:Thursday'
p2755
g11
tp2756
F-0.1
s(S'U01:Confidence'
p2757
g11
tp2758
F-0.1
s(g1735
g11
tp2759
F-0.1
s(S'U20:_B-2/_B-1/IN'
p2760
g1266
tp2761
F0.1
s(g2266
g8
tp2762
F0.1
s(g731
g11
tp2763
F-0.1
s(S'U05:a/bad'
p2764
g11
tp2765
F-0.1
s(g2165
g88
tp2766
F0.1
s(S'U05:his/Mansion'
p2767
g391
tp2768
F0.1
s(S'U06:if/trade'
p2769
g11
tp2770
F-0.1
s(g421
g11
tp2771
F-0.1
s(S'U21:RB/,/CC'
p2772
g11
tp2773
F-0.1
s(g2264
g11
tp2774
F-0.1
s(S'U20:DT/NN/IN'
p2775
g11
tp2776
F-0.5
s(S'U15:DT/NNP'
p2777
g11
tp2778
F-0.1
s(S'U22:NNP/IN/DT'
p2779
g11
tp2780
F-0.1
s(g4
g11
tp2781
F-0.1
s(S'U03:billion'
p2782
g93
tp2783
F0.2
s(S'U17:NN/NN'
p2784
g11
tp2785
F-0.5
s(S'U15:TO/CD'
p2786
g11
tp2787
F-0.1
s(S'U22:NNP/NN/CC'
p2788
g11
tp2789
F-0.1
s(S'U12:CCq'
p2790
g74
tp2791
F0.4
s(S'U03:.'
p2792
g879
tp2793
F0.1
s(S'U06:for/imports'
p2794
g11
tp2795
F-0.1
s(S'U03:_B+1'
p2796
g74
tp2797
F1.0
s(S'U21:NNP/NN/JJ'
p2798
g1136
tp2799
F0.1
s(S'U16:VBG/VBN'
p2800
g11
tp2801
F-0.1
s(S'U21:JJ/NNP/.'
p2802
g11
tp2803
F-0.1
s(g1326
g581
tp2804
F0.1
s(S'U10:IN'
p2805
g74
tp2806
F0.5
s(g913
g719
tp2807
F0.1
s(S'U01:economists'
p2808
g676
tp2809
F0.1
s(S'U18:DT/JJ'
p2810
g11
tp2811
F-1.0
s(S'U05:,/due'
p2812
g1122
tp2813
F0.1
s(S'U17:VBP/RB'
p2814
g785
tp2815
F0.2
s(S'U00:continued'
p2816
g11
tp2817
F-0.1
s(S'U03:Chris'
p2818
g11
tp2819
F-0.1
s(S'U06:policy/has'
p2820
g11
tp2821
F-0.1
s(g2427
g11
tp2822
F-0.3
s(S'U20:#/CD/CD'
p2823
g74
tp2824
F0.1
s(g2459
g1266
tp2825
F0.1
s(g1739
g11
tp2826
F-0.1
s(S'U15:VBP/RB'
p2827
g74
tp2828
F0.1
s(g1533
g11
tp2829
F-0.1
s(S'U03:trade'
p2830
g1061
tp2831
F0.1
s(g961
g11
tp2832
F-0.1
s(S'U02:policy'
p2833
g108
tp2834
F0.2
s(S'U05:widely/,'
p2835
g74
tp2836
F0.1
s(g802
g749
tp2837
F0.1
s(g571
g11
tp2838
F-0.1
s(S'U16:NNS/.'
p2839
g74
tp2840
F0.3
s(g159
g11
tp2841
F-0.1
s(S'U20:JJ/NN/.'
p2842
g11
tp2843
F-0.1
s(S'U05:16/%'
p2844
g11
tp2845
F-0.1
s(S'U06:1988/.'
p2846
g11
tp2847
F-0.1
s(S'U15:NNP/POS'
p2848
g11
tp2849
F-0.3
s(g193
g11
tp2850
F-0.1
s(g2700
g572
tp2851
F0.1
s(g518
g470
tp2852
F0.1
s(S'U17:``/IN'
p2853
g74
tp2854
F0.1
s(g1918
g987
tp2855
F0.1
s(S'U11:#'
p2856
g74
tp2857
F0.1
s(S'U05:widely/expected'
p2858
g42
tp2859
F0.1
s(S'U17:CC/NNS'
p2860
g74
tp2861
F0.1
s(g2054
g11
tp2862
F-0.2
s(g498
S'B-PP'
p2863
tp2864
F0.5
s(g1616
S'I-NP'
p2865
tp2866
F0.1
s(S'U02:range'
p2867
g800
tp2868
F0.1
s(g1019
g74
tp2869
F0.1
s(g381
g11
tp2870
F-0.1
s(S'U04:remains'
p2871
g11
tp2872
F-0.1
s(g1229
g649
tp2873
F0.1
s(S'U01:time'
p2874
g11
tp2875
F-0.1
s(S'U13:CC'
p2876
g990
tp2877
F0.3
s(S'U18:JJ/NN'
p2878
g74
tp2879
F0.2
s(S'U21:VBN/RB/IN'
p2880
g11
tp2881
F-0.1
s(S'U05:monetary/policy'
p2882
g108
tp2883
F0.1
s(S'U04:few'
p2884
g11
tp2885
F-0.1
s(S'U03:that'
p2886
g11
tp2887
F-0.1
s(g2028
g974
tp2888
F0.1
s(S'U06:,/U.K.'
p2889
g74
tp2890
F0.1
s(g627
g216
tp2891
F0.1
s(S'U18:IN/DT'
p2892
g11
tp2893
F-0.7
s(g1768
g11
tp2894
F-0.1
s(g1584
g11
tp2895
F-0.1
s(S'U05:%/from'
p2896
g987
tp2897
F0.1
s(g1892
g11
tp2898
F-0.1
s(S'U13:)'
p2899
g74
tp2900
F0.1
s(S'U04:3.2'
p2901
g11
tp2902
F-0.1
s(S'U18:NNP/NNP'
p2903
g1058
tp2904
F0.3
s(S'U16:NN/VBD'
p2905
g433
tp2906
F0.1
s(S'U04:to'
p2907
g33
tp2908
F0.2
s(g1939
g74
tp2909
F0.1
s(S'U17:TO/DT'
p2910
g169
tp2911
F0.1
s(S'U22:NNS/IN/NN'
p2912
g22
tp2913
F0.1
s(g2307
g11
tp2914
F-0.1
s(g1627
g1114
tp2915
F0.1
s(S'U00:a'
p2916
g47
tp2917
F0.4
s(S'U17:NNP/IN'
p2918
g74
tp2919
F0.1
s(S'U00:increase'
p2920
g812
tp2921
F0.1
s(S'U20:NNP/POS/VBN'
p2922
g1007
tp2923
F0.1
s(g371
g133
tp2924
F0.3
s(S'U04:trade'
p2925
g1485
tp2926
F0.1
s(S'U22:VB/NN/NNS'
p2927
g11
tp2928
F-0.1
s(g417
g333
tp2929
F0.1
s(S'U03:The'
p2930
g74
tp2931
F0.1
s(S'U18:RB/RB'
p2932
g785
tp2933
F0.1
s(S'U10:NNS'
p2934
g1851
tp2935
F0.1
s(g407
g2863
tp2936
F0.1
s(S'U20:IN/NNP/NNP'
p2937
g25
tp2938
F0.3
s(S'U17:NNS/TO'
p2939
g812
tp2940
F0.2
s(S'U14:EX'
p2941
g279
tp2942
F0.1
s(g2093
g69
tp2943
F0.1
s(S'U16:VB/TO'
p2944
g711
tp2945
F0.1
s(S'U22:NNS/VBP/RB'
p2946
g479
tp2947
F0.1
s(S'U11:,'
p2948
g74
tp2949
F0.3
s(S'U03:due'
p2950
g74
tp2951
F0.1
s(S'U21:NN/VBD/IN'
p2952
g433
tp2953
F0.1
s(S'U10:VBZ'
p2954
g272
tp2955
F0.3
s(S'U00:said'
p2956
g1157
tp2957
F0.1
s(S'U16:TO/VB'
p2958
g11
tp2959
F-0.8
s(S'U03:on'
p2960
g11
tp2961
F-0.1
s(S'U04:their'
p2962
g11
tp2963
F-0.1
s(S"U00:'s"
p2964
g1769
tp2965
F0.1
s(S'U16:DT/NN'
p2966
g11
tp2967
F-1.1
s(S'U20:NNS/VBP/RB'
p2968
g125
tp2969
F0.1
s(g1920
g694
tp2970
F0.1
s(S'U02:for'
p2971
g458
tp2972
F0.8
s(S'U12:NNSq'
p2973
g11
tp2974
F-1.1
s(S'U04:senior'
p2975
g1157
tp2976
F0.1
s(S'U06:very/heavily'
p2977
g133
tp2978
F0.1
s(S'U02:1988'
p2979
g213
tp2980
F0.1
s(S'U05:2/billion'
p2981
g11
tp2982
F-0.1
s(S'U06:Brothers/&'
p2983
g990
tp2984
F0.1
s(S'U06:PLC/.'
p2985
g319
tp2986
F0.1
s(S'U05:Dillow/,'
p2987
g74
tp2988
F0.1
s(S'U20:_B-1/NNP/IN'
p2989
g697
tp2990
F0.1
s(g2655
g14
tp2991
F0.1
s(S'U06:billion/-RRB-'
p2992
g74
tp2993
F0.1
s(S'U04:release'
p2994
g1122
tp2995
F0.1
s(S'U21:MD/VB/DT'
p2996
g11
tp2997
F-0.1
s(S'U03:deficit'
p2998
g74
tp2999
F0.1
s(S'U16:VBZ/RB'
p3000
g496
tp3001
F0.1
s(S'U16:VBD/JJ'
p3002
g11
tp3003
F-0.1
s(S'U12:#q'
p3004
g74
tp3005
F0.1
s(S'U05:to/take'
p3006
g1341
tp3007
F0.1
s(S'U00:Sanjay'
p3008
g74
tp3009
F0.1
s(S'U14:NN'
p3010
g169
tp3011
F0.8
s(g204
g11
tp3012
F-0.1
s(g1276
g74
tp3013
F0.1
s(g2247
g11
tp3014
F-0.3
s(S'U06:2/billion'
p3015
g74
tp3016
F0.1
s(g576
g1238
tp3017
F0.1
s(S'U06:pound/,'
p3018
g827
tp3019
F0.1
s(S'U10:RB'
p3020
g74
tp3021
F0.1
s(S'U06:in/the'
p3022
g11
tp3023
F-0.2
s(g946
g433
tp3024
F0.1
s(S'U17:CC/NNP'
p3025
g11
tp3026
F-0.2
s(S'U20:RB/VBN/TO'
p3027
g384
tp3028
F0.1
s(g2351
g74
tp3029
F0.1
s(g643
g181
tp3030
F0.1
s(S'U05:last/Thursday'
p3031
g11
tp3032
F-0.1
s(S'U22:JJ/NN/.'
p3033
g719
tp3034
F0.1
s(g2760
g11
tp3035
F-0.1
s(S'U05:range/widely'
p3036
g125
tp3037
F0.1
s(g1836
g11
tp3038
F-0.1
s(g2242
g11
tp3039
F-0.1
s(S'U13:VBZ'
p3040
g11
tp3041
F-0.3
s(S'U00:prevent'
p3042
g394
tp3043
F0.1
s(g2385
g11
tp3044
F-0.1
s(g1401
g11
tp3045
F-0.1
s(S'U02:2'
p3046
g74
tp3047
F0.1
s(S'U05:gap/registered'
p3048
g269
tp3049
F0.1
s(S'U11:VBN'
p3050
g294
tp3051
F0.2
s(g2794
g178
tp3052
F0.1
s(g506
g11
tp3053
F-0.1
s(g1464
g307
tp3054
F0.2
s(S'U06:market/analysts'
p3055
g959
tp3056
F0.1
s(S'U10:NNS'
p3057
g74
tp3058
F0.2
s(g2000
g11
tp3059
F-0.1
s(g1483
g11
tp3060
F-0.1
s(S'U10:CC'
p3061
g11
tp3062
F-0.6
s(S'U10:POS'
p3063
g1769
tp3064
F0.1
s(S"U20:,/''/VBD"
p3065
g1502
tp3066
F0.2
s(S'U18:VBZ/VBG'
p3067
g749
tp3068
F0.1
s(g2086
g181
tp3069
F0.1
s(S'U13:JJ'
p3070
g74
tp3071
F0.5
s(S'U05:risks/for'
p3072
g11
tp3073
F-0.1
s(S'U20:CD/(/$'
p3074
g11
tp3075
F-0.1
s(g2245
g2865
tp3076
F0.1
s(S'U00:any'
p3077
g2126
tp3078
F0.1
s(S'U21:VBN/TO/VB'
p3079
g272
tp3080
F0.3
s(S'U11:VBN'
p3081
g272
tp3082
F0.4
s(S'U20:PRP$/JJ/CD'
p3083
g11
tp3084
F-0.1
s(S'U13:DT'
p3085
g74
tp3086
F0.3
s(S'U05:August/.'
p3087
g74
tp3088
F0.1
s(S'U18:JJ/NNP'
p3089
g1136
tp3090
F0.1
s(S'U17:NNPS/CC'
p3091
g990
tp3092
F0.1
s(S'U15:VB/NNS'
p3093
g11
tp3094
F-0.1
s(g2950
g11
tp3095
F-0.1
s(g2076
g11
tp3096
F-0.1
s(S'U21:VBN/NN/TO'
p3097
g294
tp3098
F0.1
s(S'U06:government/being'
p3099
g11
tp3100
F-0.1
s(g110
g1591
tp3101
F0.1
s(S'U21:NNP/,/JJ'
p3102
g11
tp3103
F-0.3
s(S'U15:DT/NN'
p3104
g74
tp3105
F0.1
s(S'B:O'
p3106
g697
tp3107
F0.2
s(S'U20:RB/VBN/NN'
p3108
g792
tp3109
F0.1
s(S'U14:TO'
p3110
g33
tp3111
F0.2
s(S'U17:NNP/NN'
p3112
g11
tp3113
F-0.3
s(g3042
g11
tp3114
F-0.1
s(S'U04:analysts'
p3115
g463
tp3116
F0.1
s(S'U17:CC/NN'
p3117
g175
tp3118
F0.1
s(g906
g11
tp3119
F-0.1
s(S'U01:Briscoe'
p3120
g11
tp3121
F-0.1
s(S'U14:DT'
p3122
g272
tp3123
F0.4
s(g1493
g11
tp3124
F-0.6
s(S'U05:This/has'
p3125
g11
tp3126
F-0.1
s(S'U14:JJ'
p3127
g101
tp3128
F0.4
s(S'U22:VBZ/DT/JJ'
p3129
g11
tp3130
F-0.1
s(S'U03:has'
p3131
g108
tp3132
F0.1
s(g2609
g125
tp3133
F0.1
s(S'U21:CC/NNP/POS'
p3134
g266
tp3135
F0.1
s(S'U06:Montagu/,'
p3136
g336
tp3137
F0.1
s(g2631
g11
tp3138
F-0.1
s(S'U04:any'
p3139
g11
tp3140
F-0.1
s(g362
g11
tp3141
F-0.1
s(S'U03:transforming'
p3142
g11
tp3143
F-0.1
s(S'U14:RB'
p3144
g11
tp3145
F-0.6
s(g2499
g11
tp3146
F-0.3
s(S'U03:in'
p3147
g394
tp3148
F0.2
s(S'U21:,/VBN/VBD'
p3149
g69
tp3150
F0.1
s(S'U02:Co.'
p3151
g11
tp3152
F-0.1
s(g1231
g11
tp3153
F-2.4
s(S'U21:NN/NNS/VBP'
p3154
g405
tp3155
F0.2
s(S'U14:IN'
p3156
g74
tp3157
F0.2
s(S'U04:freefall'
p3158
g11
tp3159
F-0.1
s(g1794
g11
tp3160
F-1.0
s(g982
g11
tp3161
F-0.8
s(g1811
g11
tp3162
F-1.0
s(g154
g11
tp3163
F-0.1
s(S'U17:,/EX'
p3164
g11
tp3165
F-0.1
s(S'U06:,/there'
p3166
g11
tp3167
F-0.1
s(g1928
g1015
tp3168
F0.1
s(S'U04:to'
p3169
g11
tp3170
F-0.7
s(S'U01:September'
p3171
g11
tp3172
F-0.1
s(g770
S'I-NP'
p3173
tp3174
F0.1
s(g710
g11
tp3175
F-0.1
s(g1201
g11
tp3176
F-0.1
s(S'U06:to/prevent'
p3177
g11
tp3178
F-0.1
s(S'U06:#/2.3'
p3179
S'I-NP'
p3180
tp3181
F0.1
s(S'U05:pressure/,'
p3182
g11
tp3183
F-0.1
s(S'U05:there/could'
p3184
g944
tp3185
F0.1
s(g1809
g11
tp3186
F-0.1
s(S'U16:,/CC'
p3187
g11
tp3188
F-0.1
s(S'U04:heavily'
p3189
g11
tp3190
F-0.1
s(S'U06:from/the'
p3191
g11
tp3192
F-0.1
s(S'U03:time'
p3193
S'I-NP'
p3194
tp3195
F0.1
s(S'U10:DT'
p3196
g1708
tp3197
F0.1
s(S'U21:``/IN/EX'
p3198
g11
tp3199
F-0.1
s(S'U12:TOq'
p3200
g169
tp3201
F0.2
s(S'U00:2.3'
p3202
g2310
tp3203
F0.1
s(g1240
g691
tp3204
F0.1
s(S'U22:NN/CC/DT'
p3205
g342
tp3206
F0.1
s(S'U01:range'
p3207
g125
tp3208
F0.1
s(S'U11:,'
p3209
g247
tp3210
F0.2
s(g2880
g700
tp3211
F0.1
s(S'U01:sterling'
p3212
g1548
tp3213
F0.1
s(S'U04:the'
p3214
g96
tp3215
F0.1
s(g485
g812
tp3216
F0.3
s(g2256
g424
tp3217
F0.1
s(g2213
g272
tp3218
F0.4
s(S'U21:EX/MD/VB'
p3219
g944
tp3220
F0.1
s(g2442
g74
tp3221
F0.1
s(S'U05:inflows/.'
p3222
g11
tp3223
F-0.1
s(g338
g11
tp3224
F-0.1
s(g2101
g11
tp3225
F-0.1
s(S'U15:IN/NNP'
p3226
g74
tp3227
F0.2
s(S'U03:his'
p3228
S'B-PP'
p3229
tp3230
F0.1
s(S'U06:15/%'
p3231
g307
tp3232
F0.1
s(g3228
g11
tp3233
F-0.1
s(S'U04:Thursday'
p3234
g1136
tp3235
F0.1
s(S'U04:last'
p3236
g572
tp3237
F0.1
s(S'U18:VBP/RB'
p3238
g11
tp3239
F-0.2
s(g2604
g11
tp3240
F-0.1
s(g212
g11
tp3241
F-0.1
s(S'U21:_B-1/``/DT'
p3242
g11
tp3243
F-0.1
s(g1804
g74
tp3244
F0.1
s(S'U01:another'
p3245
g1263
tp3246
F0.2
s(S'U00:September'
p3247
g1122
tp3248
F0.1
s(S'U15:CD/NN'
p3249
g694
tp3250
F0.1
s(S'U00:Nomura'
p3251
g2252
tp3252
F0.1
s(S'U05:heavily/on'
p3253
g333
tp3254
F0.1
s(g355
g11
tp3255
F-0.1
s(S'U04:sharp'
p3256
g11
tp3257
F-0.1
s(S'U02:inflows'
p3258
g11
tp3259
F-0.1
s(S'U22:IN/NN/NNS'
p3260
g11
tp3261
F-0.1
s(S'U11:NN'
p3262
g537
tp3263
F1.0
s(S'U01:data'
p3264
g353
tp3265
F0.1
s(S'U21:NN/IN/NN'
p3266
g1061
tp3267
F0.1
s(S'U03:helped'
p3268
g537
tp3269
F0.1
s(S'U06:could/be'
p3270
g11
tp3271
F-0.1
s(S'U11:VBG'
p3272
g1513
tp3273
F0.1
s(S'U06:due/for'
p3274
g1122
tp3275
F0.1
s(S'U12:)q'
p3276
g74
tp3277
F0.1
s(g1692
g11
tp3278
F-0.1
s(S'U15:#/CD'
p3279
g74
tp3280
F0.1
s(S'U21:DT/NNP/NNP'
p3281
g11
tp3282
F-0.1
s(g2566
g11
tp3283
F-0.1
s(S'U06:topped/only'
p3284
g11
tp3285
F-0.1
s(S'U21:CD/CD/)'
p3286
g11
tp3287
F-0.1
s(g2463
g479
tp3288
F0.1
s(S'U03:announce'
p3289
g1769
tp3290
F0.1
s(S'U06:Mansion/House'
p3291
g11
tp3292
F-0.1
s(g2744
g11
tp3293
F-0.1
s(S'B:B-ADJP'
p3294
g436
tp3295
F0.1
s(g1245
g1188
tp3296
F0.1
s(g265
g11
tp3297
F-0.1
s(S'U02:near-record'
p3298
g11
tp3299
F-0.1
s(g1772
g3173
tp3300
F0.1
s(S'U04:another'
p3301
g384
tp3302
F0.1
s(S'U01:2.2'
p3303
g11
tp3304
F-0.1
s(S'U06:billion/gap'
p3305
g11
tp3306
F-0.1
s(g883
g11
tp3307
F-0.7
s(S'U04:measures'
p3308
g11
tp3309
F-0.1
s(g3149
g11
tp3310
F-0.1
s(g491
g11
tp3311
F-0.3
s(S'U04:registered'
p3312
g339
tp3313
F0.1
s(S'U21:#/CD/CD'
p3314
g74
tp3315
F0.1
s(g2219
g74
tp3316
F0.1
s(S'U05:Briscoe/,'
p3317
g11
tp3318
F-0.1
s(S'U04:the'
p3319
g700
tp3320
F0.1
s(S'U22:NN/NN/NNS'
p3321
g11
tp3322
F-0.1
s(S'U05:Montagu/,'
p3323
g11
tp3324
F-0.1
s(S'U05:awful/lot'
p3325
g11
tp3326
F-0.1
s(S'U22:NNS/VBP/.'
p3327
g11
tp3328
F-0.1
s(g1515
g152
tp3329
F0.7
s(S'U02:dive'
p3330
g431
tp3331
F0.1
s(S'U22:)/NN/IN'
p3332
g74
tp3333
F0.1
s(S'U06:increase/base'
p3334
g11
tp3335
F-0.1
s(g1871
g14
tp3336
F0.1
s(S'U04:announce'
p3337
g11
tp3338
F-0.1
s(S'U05:15/%'
p3339
g11
tp3340
F-0.1
s(S'U00:2.2'
p3341
g11
tp3342
F-0.1
s(S'U04:high'
p3343
g69
tp3344
F0.1
s(S'U15:_B-1/NNP'
p3345
g714
tp3346
F0.1
s(g3061
g463
tp3347
F0.4
s(S'U18:VBN/IN'
p3348
g11
tp3349
F-0.2
s(S'U16:#/CD'
p3350
g93
tp3351
F0.2
s(S'U03:2'
p3352
g11
tp3353
F-0.1
s(S'U20:DT/NNP/NN'
p3354
g11
tp3355
F-0.1
s(S'U15:VBP/VBN'
p3356
g11
tp3357
F-0.1
s(S'U05:sterling/over'
p3358
g11
tp3359
F-0.1
s(S'U22:./_B+1/_B+2'
p3360
g74
tp3361
F1.0
s(S'U20:IN/NNP/CC'
p3362
g1012
tp3363
F0.1
s(S'U05:the/government'
p3364
g88
tp3365
F0.1
s(S'U02:data'
p3366
g11
tp3367
F-0.1
s(g1582
g11
tp3368
F-0.4
s(S'U22:CD/(/$'
p3369
g11
tp3370
F-0.1
s(S'U21:_B-1/CC/NNS'
p3371
g11
tp3372
F-0.1
s(S'U04:restated'
p3373
g30
tp3374
F0.1
s(g100
g11
tp3375
F-0.1
s(S'U22:NN/IN/NNS'
p3376
g11
tp3377
F-0.1
s(S'U00:there'
p3378
g1792
tp3379
F0.1
s(S'U14:,'
p3380
g1676
tp3381
F0.4
s(g2485
g632
tp3382
F0.1
s(S'U15:VBZ/DT'
p3383
g11
tp3384
F-0.2
s(S'U05:Nigel/Lawson'
p3385
g30
tp3386
F0.1
s(S'U02:%'
p3387
g1733
tp3388
F0.2
s(S'U01:August'
p3389
g342
tp3390
F0.1
s(g3072
g458
tp3391
F0.1
s(S'U00:expect'
p3392
g11
tp3393
F-0.1
s(g2958
g377
tp3394
F0.8
s(g2839
g11
tp3395
F-0.3
s(S'U15:CD/('
p3396
g14
tp3397
F0.1
s(g1454
g827
tp3398
F0.1
s(g1006
g11
tp3399
F-1.1
s(g135
g11
tp3400
F-0.1
s(S'U21:VBD/JJ/NN'
p3401
g11
tp3402
F-0.1
s(S'U02:Brothers'
p3403
g990
tp3404
F0.1
s(S'U13:NN'
p3405
g74
tp3406
F0.1
s(S'U00:announce'
p3407
g907
tp3408
F0.1
s(g1025
g11
tp3409
F-1.4
s(g1159
g11
tp3410
F-1.0
s(g2517
g857
tp3411
F0.1
s(S'U22:,/JJ/IN'
p3412
g11
tp3413
F-0.1
s(g2925
g11
tp3414
F-0.2
s(g332
g11
tp3415
F-0.2
s(S'U05:exchange/market'
p3416
g959
tp3417
F0.1
s(S'U06:firm/monetary'
p3418
g581
tp3419
F0.1
s(S'U15:CD/CD'
p3420
g136
tp3421
F0.2
s(g2362
g11
tp3422
F-0.1
s(S'U03:August'
p3423
g11
tp3424
F-0.2
s(S'U05:time/,'
p3425
g74
tp3426
F0.1
s(S'U01:bad'
p3427
g11
tp3428
F-0.2
s(S'U12:VBq'
p3429
g247
tp3430
F0.1
s(S'U15:VBN/VBD'
p3431
g1693
tp3432
F0.1
s(S'U00:3.2'
p3433
g11
tp3434
F-0.1
s(S'U20:VBP/VBG/NN'
p3435
g11
tp3436
F-0.1
s(S'U14:PRP$'
p3437
g1733
tp3438
F0.2
s(S'U16:VBZ/RB'
p3439
g33
tp3440
F0.1
s(g2884
g74
tp3441
F0.1
s(g3182
g74
tp3442
F0.1
s(S'U03:If'
p3443
g11
tp3444
F-0.1
s(g1874
S'I-NP'
p3445
tp3446
F0.1
s(S'U14:_B+1'
p3447
g152
tp3448
F0.7
s(S'U00:reckon'
p3449
g11
tp3450
F-0.1
s(g1996
g928
tp3451
F0.1
s(S'U05:The/risks'
p3452
g11
tp3453
F-0.1
s(g2952
g11
tp3454
F-0.1
s(g2403
g1007
tp3455
F0.2
s(S'U21:RB/VBN/NN'
p3456
g11
tp3457
F-0.1
s(S'U16:NNP/VBP'
p3458
g691
tp3459
F0.1
s(S'U01:being'
p3460
g1513
tp3461
F0.1
s(S'U04:September'
p3462
S'I-NP'
p3463
tp3464
F0.1
s(S"U04:'s"
p3465
g11
tp3466
F-0.2
s(S'U16:``/IN'
p3467
g845
tp3468
F0.1
s(S'U05:industry/is'
p3469
g1591
tp3470
F0.1
s(S'U01:#'
p3471
g74
tp3472
F0.1
s(S'U06:is/no'
p3473
g155
tp3474
F0.1
s(S'U05:,/given'
p3475
g11
tp3476
F-0.1
s(S'U01:risk'
p3477
g2863
tp3478
F0.1
s(S'U12:(q'
p3479
g74
tp3480
F0.1
s(g1152
g1705
tp3481
F0.1
s(g3473
g11
tp3482
F-0.1
s(S'U04:billion'
p3483
g1331
tp3484
F0.2
s(S'U01:could'
p3485
g1792
tp3486
F0.1
s(S'U05:policy/measures'
p3487
g11
tp3488
F-0.1
s(g2641
g11
tp3489
F-0.1
s(S'U04:,'
p3490
g1676
tp3491
F0.4
s(S'U04:bad'
p3492
g1324
tp3493
F0.1
s(g2312
g2052
tp3494
F0.1
s(S'U06:-LRB-/$'
p3495
g74
tp3496
F0.1
s(g55
S'B-PP'
p3497
tp3498
F0.1
s(g114
g11
tp3499
F-0.5
s(S'U06:by/the'
p3500
g11
tp3501
F-0.2
s(g1335
g11
tp3502
F-0.1
s(S'U06:take/another'
p3503
g11
tp3504
F-0.1
s(S'U15:PRP$/NNP'
p3505
g572
tp3506
F0.1
s(g2416
g11
tp3507
F-0.1
s(g932
g11
tp3508
F-0.1
s(g634
g11
tp3509
F-0.1
s(g2047
g42
tp3510
F0.1
s(g941
g11
tp3511
F-0.1
s(g510
g11
tp3512
F-0.1
s(g2409
g11
tp3513
F-0.1
s(S'U15:DT/#'
p3514
g11
tp3515
F-0.3
s(g369
g11
tp3516
F-0.1
s(S'U22:NN/IN/PRP$'
p3517
g1733
tp3518
F0.1
s(S'U13:IN'
p3519
g700
tp3520
F0.1
s(S'U21:POS/VBN/NN'
p3521
g11
tp3522
F-0.1
s(S'U06:U.K./economist'
p3523
g2019
tp3524
F0.1
s(S'U11:VBP'
p3525
g133
tp3526
F0.2
s(g3427
g1004
tp3527
F0.2
s(S"U05:'s/manufacturing"
p3528
g2865
tp3529
F0.1
s(S'U03:pressure'
p3530
g11
tp3531
F-0.1
s(S'U16:NN/TO'
p3532
g194
tp3533
F0.2
s(S'U00:near-record'
p3534
g74
tp3535
F0.1
s(g1009
g11
tp3536
F-0.1
s(S'U01:say'
p3537
g74
tp3538
F0.1
s(S'U00:given'
p3539
g1693
tp3540
F0.1
s(S'U12:INq'
p3541
g11
tp3542
F-3.3
s(S'U13:RB'
p3543
g133
tp3544
F0.1
s(g2779
g74
tp3545
F0.1
s(S'U04:pessimistic'
p3546
g1243
tp3547
F0.1
s(g1521
g11
tp3548
F-0.2
s(S'U02:deficits'
p3549
g11
tp3550
F-0.1
s(S'U15:POS/NN'
p3551
g749
tp3552
F0.1
s(g3433
g74
tp3553
F0.1
s(S'U05:#/2.3'
p3554
g11
tp3555
F-0.1
s(S"U17:''/VBD"
p3556
g11
tp3557
F-0.2
s(g2309
g11
tp3558
F-0.1
s(g1990
g11
tp3559
F-0.1
s(g200
g125
tp3560
F0.1
s(g2331
g11
tp3561
F-0.1
s(g963
g1534
tp3562
F0.1
s(g1981
g11
tp3563
F-0.1
s(S'U03:inflows'
p3564
g1394
tp3565
F0.1
s(g3337
g2405
tp3566
F0.1
s(S'U06:&/Co.'
p3567
g415
tp3568
F0.1
s(S'U05:remains/fairly'
p3569
g11
tp3570
F-0.1
s(S'U15:_B-1/DT'
p3571
g11
tp3572
F-0.2
s(g1105
g1266
tp3573
F0.1
s(S'U03:Co.'
p3574
g415
tp3575
F0.1
s(S'U18:TO/CD'
p3576
g812
tp3577
F0.1
s(g1766
g11
tp3578
F-0.1
s(g2577
g11
tp3579
F-0.2
s(g2757
g3497
tp3580
F0.1
s(S'U15:VBD/EX'
p3581
g11
tp3582
F-0.1
s(S'U15:NNS/NNS'
p3583
g11
tp3584
F-0.1
s(S'U04:helped'
p3585
g11
tp3586
F-0.1
s(S'U22:NNS/TO/VB'
p3587
g11
tp3588
F-0.1
s(S'U20:JJ/NNS/VBP'
p3589
g11
tp3590
F-0.1
s(g386
g394
tp3591
F0.1
s(S'U00:&'
p3592
g74
tp3593
F0.1
s(S'U00:show'
p3594
g898
tp3595
F0.2
s(g1855
g11
tp3596
F-0.1
s(S'U02:Institute'
p3597
g11
tp3598
F-0.1
s(S'U22:IN/NNP/CD'
p3599
g807
tp3600
F0.1
s(S'U05:base/rates'
p3601
g11
tp3602
F-0.1
s(S'U06:sharp/dive'
p3603
g11
tp3604
F-0.1
s(S'U16:VBN/RB'
p3605
g11
tp3606
F-0.1
s(S'U21:NNS/CC/JJ'
p3607
g74
tp3608
F0.1
s(S'U22:IN/NN/IN'
p3609
g5
tp3610
F0.2
s(S'B:I-NP'
p3611
g537
tp3612
F1.3
s(g435
g11
tp3613
F-0.2
s(S'U15:CC/NNS'
p3614
g868
tp3615
F0.1
s(g3031
S'I-NP'
p3616
tp3617
F0.1
s(S'U22:RB/VBN/TO'
p3618
g11
tp3619
F-0.1
s(S'U00:over'
p3620
g719
tp3621
F0.1
s(S'U01:down'
p3622
g916
tp3623
F0.1
s(S'U05:the/same'
p3624
g11
tp3625
F-0.1
s(S'U04:data'
p3626
g676
tp3627
F0.1
s(g1340
g11
tp3628
F-0.1
s(S'U05:current/account'
p3629
g516
tp3630
F0.1
s(g341
g11
tp3631
F-0.2
s(S'U21:POS/NN/TO'
p3632
g2405
tp3633
F0.1
s(S'U20:NNP/NNP/.'
p3634
g11
tp3635
F-0.2
s(g2475
S'I-NP'
p3636
tp3637
F0.1
s(S'U16:VBN/IN'
p3638
g2052
tp3639
F0.2
s(g218
g1028
tp3640
F0.1
s(S'U00:current'
p3641
g11
tp3642
F-0.2
s(S'U20:RB/JJ/IN'
p3643
g356
tp3644
F0.1
s(g2587
g11
tp3645
F-2.8
s(S'U01:new'
p3646
g2126
tp3647
F0.1
s(S'U06:figures/range'
p3648
g11
tp3649
F-0.1
s(g3629
g11
tp3650
F-0.1
s(S'U02:But'
p3651
g11
tp3652
F-0.1
s(S'U20:VBP/VBN/RB'
p3653
g700
tp3654
F0.1
s(S"U06:,/''"
p3655
g11
tp3656
F-0.2
s(S'U03:July'
p3657
g11
tp3658
F-0.2
s(g665
g5
tp3659
F1.7
s(g1947
g11
tp3660
F-0.3
s(S'U00:bad'
p3661
g649
tp3662
F0.2
s(g1817
g431
tp3663
F0.1
s(S'U10:NNP'
p3664
g350
tp3665
F0.1
s(g1265
g11
tp3666
F-0.1
s(g3184
g11
tp3667
F-0.1
s(S'U18:PRP/VBZ'
p3668
g11
tp3669
F-0.1
s(S'U15:CD/NN'
p3670
g269
tp3671
F0.1
s(S'U18:VBP/DT'
p3672
g11
tp3673
F-0.1
s(S'U05:week/.'
p3674
g74
tp3675
F0.1
s(S'U21:NNS/VBP/DT'
p3676
g11
tp3677
F-0.1
s(g2973
g812
tp3678
F1.1
s(S'U22:NN/IN/DT'
p3679
g11
tp3680
F-0.2
s(S'U15:$/CD'
p3681
g11
tp3682
F-0.1
s(S'U14:.'
p3683
g719
tp3684
F0.6
s(S'U02:said'
p3685
g1502
tp3686
F0.2
s(g1356
g74
tp3687
F0.2
s(g151
g11
tp3688
F-1.0
s(S'U17:TO/VB'
p3689
g194
tp3690
F0.4
s(g3006
g11
tp3691
F-0.1
s(S'U20:,/JJ/IN'
p3692
g436
tp3693
F0.1
s(S'U14:MD'
p3694
g11
tp3695
F-0.1
s(S'U21:VBZ/VBG/PRP'
p3696
g933
tp3697
F0.1
s(S'U04:sign'
p3698
g155
tp3699
F0.1
s(S'U18:NNP/POS'
p3700
g11
tp3701
F-0.2
s(S"U13:''"
p3702
g11
tp3703
F-0.2
s(S'U21:NN/VBZ/VBN'
p3704
g537
tp3705
F0.2
s(S'U18:JJ/NNP'
p3706
g74
tp3707
F0.1
s(S'U06:down/side'
p3708
g1676
tp3709
F0.1
s(g2396
g294
tp3710
F0.1
s(S'U21:NNS/./_B+1'
p3711
g74
tp3712
F0.3
s(S'U00:Research'
p3713
g11
tp3714
F-0.1
s(g481
g74
tp3715
F0.1
s(S'U11:NNP'
p3716
g691
tp3717
F0.1
s(g3364
g11
tp3718
F-0.1
s(S'U01:few'
p3719
g1534
tp3720
F0.1
s(S'U20:IN/NN/NNS'
p3721
g11
tp3722
F-0.1
s(g2278
g11
tp3723
F-0.1
s(S'U18:NNP/NN'
p3724
g391
tp3725
F0.1
s(g71
g3229
tp3726
F0.1
s(g2004
g11
tp3727
F-1.0
s(S'U00:sterling'
p3728
g1114
tp3729
F0.1
s(g784
g11
tp3730
F-0.2
s(g457
g11
tp3731
F-0.1
s(g1417
g11
tp3732
F-0.1
s(g227
g25
tp3733
F0.1
s(S'U18:CC/NNP'
p3734
g11
tp3735
F-0.1
s(S'U22:IN/NNP/NNP'
p3736
g1058
tp3737
F0.3
s(S'U01:widely'
p3738
g42
tp3739
F0.1
s(S'U01:reported'
p3740
g1688
tp3741
F0.1
s(S'U18:NNP/VBP'
p3742
g2297
tp3743
F0.1
s(S'U21:$/CD/CD'
p3744
g74
tp3745
F0.1
s(g774
g82
tp3746
F0.4
s(S'U12:RBq'
p3747
g898
tp3748
F0.1
s(S'U15:NN/TO'
p3749
g11
tp3750
F-0.2
s(g2860
g11
tp3751
F-0.1
s(S"U06:''/noted"
p3752
g74
tp3753
F0.1
s(S'U06:risks/for'
p3754
g11
tp3755
F-0.1
s(S'U15:VBP/VBG'
p3756
g1188
tp3757
F0.1
s(S'U22:,/CC/JJ'
p3758
g11
tp3759
F-0.1
s(S'U15:NN/VBZ'
p3760
g328
tp3761
F0.4
s(S'U13:CD'
p3762
g1194
tp3763
F0.1
s(S'U00:government'
p3764
g11
tp3765
F-0.1
s(S'U01:high'
p3766
g11
tp3767
F-0.1
s(g3050
g11
tp3768
F-0.9
s(g2469
g160
tp3769
F0.1
s(g3171
g74
tp3770
F0.1
s(S'U21:,/JJ/IN'
p3771
g11
tp3772
F-0.1
s(g2664
g11
tp3773
F-0.1
s(g1819
g14
tp3774
F0.1
s(g3115
g11
tp3775
F-0.1
s(g1963
g169
tp3776
F1.8
s(S'U17:VBP/VBG'
p3777
g11
tp3778
F-0.1
s(S'U21:CD/)/NN'
p3779
g11
tp3780
F-0.1
s(S'U18:VBD/EX'
p3781
g11
tp3782
F-0.1
s(S'U06:time/,'
p3783
g3173
tp3784
F0.1
s(g2694
g11
tp3785
F-0.1
s(S'U04:noted'
p3786
g11
tp3787
F-0.1
s(S'U04:in'
p3788
g2126
tp3789
F0.2
s(g2543
g194
tp3790
F0.3
s(S'U00:restated'
p3791
g169
tp3792
F0.1
s(S'U02:3.2'
p3793
g11
tp3794
F-0.1
s(g3521
g1007
tp3795
F0.1
s(S'U18:VB/NNS'
p3796
g181
tp3797
F0.1
s(S'U21:PRP$/NNP/NNP'
p3798
g391
tp3799
F0.1
s(g3264
g11
tp3800
F-0.1
s(S'U16:POS/VBN'
p3801
g11
tp3802
F-0.1
s(g2049
g11
tp3803
F-0.2
s(S'U06:number/,'
p3804
g11
tp3805
F-0.1
s(S'U18:PRP$/JJ'
p3806
g11
tp3807
F-0.1
s(S'U15:NNP/VBP'
p3808
g128
tp3809
F0.1
s(S'U03:#'
p3810
g11
tp3811
F-0.1
s(S'U16:PRP/VBZ'
p3812
g1243
tp3813
F0.1
s(S'U20:NN/VBN/IN'
p3814
g2297
tp3815
F0.1
s(S'U05:and/capital'
p3816
g11
tp3817
F-0.1
s(g2820
g108
tp3818
F0.1
s(g3260
g1061
tp3819
F0.1
s(S'U20:DT/NN/VBZ'
p3820
g599
tp3821
F0.1
s(S'U13:VBN'
p3822
g1114
tp3823
F0.2
s(g1973
g11
tp3824
F-0.3
s(S'U21:NNS/,/VBN'
p3825
g11
tp3826
F-0.1
s(S'U02:high'
p3827
g1693
tp3828
F0.1
s(g3762
g11
tp3829
F-1.0
s(S'U04:his'
p3830
g1238
tp3831
F0.1
s(S'U14:('
p3832
g74
tp3833
F0.1
s(S'U14:NNS'
p3834
g676
tp3835
F0.2
s(S'U00:Mansion'
p3836
g11
tp3837
F-0.1
s(g1389
g990
tp3838
F0.1
s(g3087
g11
tp3839
F-0.1
s(S'U13:RB'
p3840
g11
tp3841
F-0.6
s(g409
g987
tp3842
F0.3
s(g1671
g11
tp3843
F-0.1
s(S'U18:DT/NNP'
p3844
g697
tp3845
F0.1
s(g1011
g11
tp3846
F-0.1
s(S'U21:JJ/CD/NN'
p3847
g11
tp3848
F-0.1
s(g669
g1114
tp3849
F0.1
s(S'U02:prevent'
p3850
g11
tp3851
F-0.1
s(S'U06:speech/last'
p3852
g11
tp3853
F-0.1
s(S'U04:say'
p3854
g959
tp3855
F0.1
s(S'U17:RB/VBN'
p3856
g33
tp3857
F0.1
s(g374
g11
tp3858
F-0.3
s(S'U15:VBP/RB'
p3859
g11
tp3860
F-0.2
s(g3055
g11
tp3861
F-0.1
s(g2812
g11
tp3862
F-0.1
s(g404
g11
tp3863
F-0.3
s(S'U12:JJq'
p3864
g47
tp3865
F1.4
s(S'U15:NN/,'
p3866
g247
tp3867
F0.1
s(g3334
g8
tp3868
F0.1
s(g1387
g1188
tp3869
F0.1
s(S'U20:IN/DT/#'
p3870
g11
tp3871
F-0.2
s(S'U17:,/NNS'
p3872
g74
tp3873
F0.1
s(S'U00:in'
p3874
g11
tp3875
F-0.5
s(g625
g11
tp3876
F-0.1
s(S'U10:,'
p3877
g1502
tp3878
F0.4
s(g986
g11
tp3879
F-0.2
s(S'U04:goods'
p3880
g175
tp3881
F0.1
s(S'B:I-VP'
p3882
g2052
tp3883
F0.1
s(S'U14:DT'
p3884
g700
tp3885
F0.1
s(S'U15:NN/IN'
p3886
g11
tp3887
F-0.1
s(g1467
g22
tp3888
F0.2
s(S'U18:POS/JJ'
p3889
g266
tp3890
F0.1
s(g2746
g898
tp3891
F0.1
s(S'U00:improvement'
p3892
g11
tp3893
F-0.1
s(S'U15:NN/NNS'
p3894
g11
tp3895
F-0.6
s(g723
g11
tp3896
F-0.3
s(S'U05:the/#'
p3897
g74
tp3898
F0.1
s(g2493
g307
tp3899
F0.3
s(S'U15:,/VB'
p3900
g711
tp3901
F0.1
s(S'U05:commitment/to'
p3902
g169
tp3903
F0.1
s(S'U15:VBD/NNP'
p3904
g11
tp3905
F-0.2
s(S'U15:)/NN'
p3906
g11
tp3907
F-0.1
s(g3585
g108
tp3908
F0.1
s(g2215
g11
tp3909
F-0.2
s(S'U13:VB'
p3910
g272
tp3911
F0.4
s(S'U01:Nomura'
p3912
g25
tp3913
F0.1
s(g3139
g1769
tp3914
F0.1
s(S'U15:_B-2/_B-1'
p3915
g1266
tp3916
F0.1
s(g1924
g11
tp3917
F-0.1
s(g3587
g635
tp3918
F0.1
s(g3272
g11
tp3919
F-0.2
s(g1274
g11
tp3920
F-0.1
s(S'U15:NN/NNS'
p3921
g879
tp3922
F0.2
s(g2889
g11
tp3923
F-0.1
s(S'U22:DT/#/CD'
p3924
g74
tp3925
F0.1
s(g414
g11
tp3926
F-0.1
s(S'U05:October/1988'
p3927
g213
tp3928
F0.1
s(S'U04:failure'
p3929
g1141
tp3930
F0.1
s(g1495
g11
tp3931
F-0.1
s(S'U17:CD/)'
p3932
g74
tp3933
F0.1
s(S'U17:VBG/VBN'
p3934
g11
tp3935
F-0.1
s(S'U06:dive/if'
p3936
g431
tp3937
F0.1
s(g2479
g333
tp3938
F0.1
s(S'U05:PLC/.'
p3939
g74
tp3940
F0.1
s(g891
g11
tp3941
F-0.4
s(S'U06:Bank/PLC'
p3942
g1336
tp3943
F0.1
s(S'U02:analysts'
p3944
g11
tp3945
F-0.1
s(S'U04:unit'
p3946
g11
tp3947
F-0.1
s(g3736
g11
tp3948
F-0.3
s(g276
g169
tp3949
F0.4
s(S'U10:)'
p3950
g2652
tp3951
F0.1
s(g2989
g11
tp3952
F-0.1
s(S'U22:,/EX/MD'
p3953
g74
tp3954
F0.1
s(S'U21:VBN/VBN/IN'
p3955
g921
tp3956
F0.1
s(S'U06:reckon/underlying'
p3957
g868
tp3958
F0.1
s(S'U20:NNP/POS/NN'
p3959
g2865
tp3960
F0.1
s(S'U14:VBP'
p3961
g74
tp3962
F0.1
s(S'U06:industry/is'
p3963
g11
tp3964
F-0.1
s(S'U01:support'
p3965
g470
tp3966
F0.1
s(S"U03:''"
p3967
g74
tp3968
F0.2
s(S'U10:DT'
p3969
g11
tp3970
F-2.8
s(g3330
g11
tp3971
F-0.1
s(S'U16:NN/TO'
p3972
g169
tp3973
F0.1
s(g1379
g74
tp3974
F0.1
s(S'U06:level/to'
p3975
g11
tp3976
F-0.1
s(S'U05:a/unit'
p3977
g11
tp3978
F-0.1
s(S'U11:PRP$'
p3979
g11
tp3980
F-0.2
s(S'U06:deficit/of'
p3981
g2310
tp3982
F0.1
s(S'U03:number'
p3983
g2270
tp3984
F0.1
s(S'U20:DT/RB/VBN'
p3985
g3636
tp3986
F0.1
s(S'U20:NNP/,/VBD'
p3987
g11
tp3988
F-0.1
s(S'U21:NN/NNS/NNS'
p3989
g1394
tp3990
F0.1
s(S'U13:EX'
p3991
g845
tp3992
F0.1
s(S'U11:CD'
p3993
g74
tp3994
F0.5
s(S'U22:TO/VB/DT'
p3995
g194
tp3996
F0.3
s(g325
g1007
tp3997
F0.4
s(S'U02:#'
p3998
g11
tp3999
F-0.3
s(S'U00:being'
p4000
g64
tp4001
F0.1
s(S'U02:pound'
p4002
g827
tp4003
F0.2
s(S'U06:economist/for'
p4004
S'I-NP'
p4005
tp4006
F0.1
s(S'U22:NN/,/NNS'
p4007
g11
tp4008
F-0.1
s(S'U01:July'
p4009
g1012
tp4010
F0.1
s(S'U22:NN/VBG/VBN'
p4011
g88
tp4012
F0.1
s(S'U17:DT/#'
p4013
g74
tp4014
F0.1
s(g526
g350
tp4015
F0.1
s(S'U22:VBN/TO/VB'
p4016
g11
tp4017
F-0.3
s(S'U04:to'
p4018
g537
tp4019
F0.2
s(S'U04:new'
p4020
g101
tp4021
F0.1
s(g3641
g216
tp4022
F0.1
s(g189
g5
tp4023
F0.2
s(S'U18:RB/JJ'
p4024
g1243
tp4025
F0.1
s(S'U12:VBPq'
p4026
g11
tp4027
F-0.6
s(S'U06:being/forced'
p4028
g632
tp4029
F0.1
s(S'U21:DT/NN/VBZ'
p4030
g11
tp4031
F-0.1
s(S'U05:economists/expect'
p4032
g11
tp4033
F-0.1
s(S"U01:''"
p4034
g11
tp4035
F-0.2
s(S'U14:_B+1'
p4036
g879
tp4037
F0.1
s(g3766
g1028
tp4038
F0.1
s(S'U01:last'
p4039
g11
tp4040
F-0.1
s(S'U22:VBP/RB/RB'
p4041
g785
tp4042
F0.1
s(g1260
g719
tp4043
F0.5
s(S'U03:registered'
p4044
g11
tp4045
F-0.1
s(g999
g700
tp4046
F0.1
s(S'U00:Lawson'
p4047
g11
tp4048
F-0.1
s(g3832
g11
tp4049
F-0.1
s(g164
g2123
tp4050
F0.1
s(g229
g11
tp4051
F-0.1
s(g3864
g11
tp4052
F-1.6
s(g1161
g133
tp4053
F0.1
s(S'U17:,/VBN'
p4054
g11
tp4055
F-0.1
s(g2481
g3463
tp4056
F0.1
s(S'U06:deficits/.'
p4057
g11
tp4058
F-0.1
s(S'U03:PLC'
p4059
g11
tp4060
F-0.1
s(S'U21:NNP/NN/IN'
p4061
g854
tp4062
F0.2
s(S'U11:NNP'
p4063
g11
tp4064
F-2.9
s(S'U21:NNP/,/DT'
p4065
g74
tp4066
F0.1
s(S'U14:)'
p4067
g74
tp4068
F0.1
s(g130
g2019
tp4069
F0.1
s(g3609
g11
tp4070
F-0.2
s(S'U20:VBN/NN/IN'
p4071
g1211
tp4072
F0.1
s(S'U01:2.3'
p4073
g11
tp4074
F-0.1
s(S'U01:deficits'
p4075
g11
tp4076
F-0.1
s(S'U06:goods/inflows'
p4077
g1394
tp4078
F0.1
s(g1351
g11
tp4079
F-0.1
s(g1293
g1591
tp4080
F0.1
s(g2321
g11
tp4081
F-0.1
s(g1649
g1576
tp4082
F0.2
s(g667
g1851
tp4083
F0.1
s(S'U17:NN/POS'
p4084
g1141
tp4085
F0.1
s(S'U14:POS'
p4086
g11
tp4087
F-0.2
s(S'U11:NNS'
p4088
g424
tp4089
F0.1
s(g2966
g581
tp4090
F1.1
s(g3844
g11
tp4091
F-0.1
s(g2240
g74
tp4092
F0.1
s(g3571
g85
tp4093
F0.1
s(S'U10:IN'
p4094
g1548
tp4095
F0.3
s(S'U22:JJ/NN/VBZ'
p4096
g47
tp4097
F0.1
s(g61
g4005
tp4098
F0.1
s(S'U05:economists/and'
p4099
g74
tp4100
F0.1
s(g2932
g11
tp4101
F-0.1
s(g2135
g11
tp4102
F-0.1
s(S'U20:VBP/RB/RB'
p4103
g96
tp4104
F0.1
s(S'U05:sterling/of'
p4105
g1324
tp4106
F0.1
s(S'U11:,'
p4107
g69
tp4108
F0.1
s(g1869
g11
tp4109
F-0.4
s(S'U10:VB'
p4110
g394
tp4111
F0.8
s(S'U02:eroded'
p4112
g11
tp4113
F-0.1
s(g1741
g933
tp4114
F0.1
s(g1850
g11
tp4115
F-0.1
s(S'U20:JJ/NN/NN'
p4116
g959
tp4117
F0.3
s(S'U18:TO/VB'
p4118
g247
tp4119
F0.1
s(S'U13:NN'
p4120
g8
tp4121
F0.1
s(g555
g11
tp4122
F-0.2
s(S'U00:about'
p4123
g11
tp4124
F-0.1
s(S'U15:IN/NN'
p4125
g74
tp4126
F0.1
s(S'U10:CD'
p4127
g74
tp4128
F0.2
s(g1596
g11
tp4129
F-0.1
s(S'U14:$'
p4130
g74
tp4131
F0.1
s(g3661
g11
tp4132
F-0.2
s(S'U17:#/CD'
p4133
g1331
tp4134
F0.2
s(S'U00:range'
p4135
g11
tp4136
F-0.1
s(S'U20:CD/NN/NN'
p4137
g11
tp4138
F-0.1
s(g428
g11
tp4139
F-0.2
s(S'U21:NN/IN/NN'
p4140
g5
tp4141
F0.3
s(S'U02:failure'
p4142
g2405
tp4143
F0.1
s(S"U20:NN/,/''"
p4144
g74
tp4145
F0.2
s(S'U00:by'
p4146
g1141
tp4147
F0.2
s(S'U04:the'
p4148
g921
tp4149
F0.1
s(g3539
g11
tp4150
F-0.1
s(g2775
g5
tp4151
F0.4
s(g4057
g3445
tp4152
F0.1
s(S'U04:past'
p4153
g289
tp4154
F0.1
s(g952
g974
tp4155
F0.1
s(S'U15:IN/NNP'
p4156
g691
tp4157
F0.1
s(g132
g11
tp4158
F-0.1
s(g3460
g11
tp4159
F-0.1
s(S'U02:House'
p4160
g572
tp4161
F0.1
s(S'U21:NNP/./_B+1'
p4162
g11
tp4163
F-0.4
s(S"U00:'s"
p4164
g294
tp4165
F0.3
s(g1523
g1012
tp4166
F0.1
s(S'U06:and/August'
p4167
g11
tp4168
F-0.1
s(g1942
g133
tp4169
F0.1
s(g3492
g11
tp4170
F-0.2
s(S'U17:VBN/TO'
p4171
g328
tp4172
F0.3
s(g2505
g1548
tp4173
F0.1
s(g1111
g74
tp4174
F0.2
s(S'U13:IN'
p4175
g347
tp4176
F0.1
s(g4123
g230
tp4177
F0.1
s(S'U15:NNS/VBP'
p4178
g74
tp4179
F0.1
s(g1821
g74
tp4180
F0.1
s(g2074
g11
tp4181
F-0.1
s(S"U22:''/VBD/NNP"
p4182
g11
tp4183
F-0.2
s(g1655
g133
tp4184
F0.1
s(S'U22:VBN/NN/TO'
p4185
g11
tp4186
F-0.1
s(S'U18:VBP/.'
p4187
g11
tp4188
F-0.1
s(S"U05:''/said"
p4189
g11
tp4190
F-0.1
s(g68
g11
tp4191
F-0.1
s(S'U21:DT/NN/JJ'
p4192
g11
tp4193
F-0.1
s(S'U22:VB/DT/NN'
p4194
g11
tp4195
F-0.2
s(S'U01:consumer'
p4196
g175
tp4197
F0.1
s(g3674
g11
tp4198
F-0.1
s(g1971
g74
tp4199
F0.2
s(S'U00:noted'
p4200
g11
tp4201
F-0.1
s(S'U21:JJ/IN/DT'
p4202
g11
tp4203
F-0.1
s(g1079
g74
tp4204
F0.2
s(g1473
g307
tp4205
F0.1
s(S'U03:there'
p4206
g74
tp4207
F0.1
s(g1679
g74
tp4208
F0.1
s(S'U00:is'
p4209
g42
tp4210
F0.1
s(S'U00:helped'
p4211
g377
tp4212
F0.1
s(S'U05:dive/if'
p4213
g1061
tp4214
F0.1
s(S'U04:billion'
p4215
g11
tp4216
F-0.4
s(S'U04:exports'
p4217
g181
tp4218
F0.1
s(g2547
g155
tp4219
F0.3
s(g3704
g11
tp4220
F-0.2
s(S'U11:('
p4221
g14
tp4222
F0.1
s(S'U00:billion'
p4223
g807
tp4224
F0.1
s(g2833
g11
tp4225
F-0.2
s(g3256
g1341
tp4226
F0.1
s(g655
g294
tp4227
F0.2
s(g2930
g11
tp4228
F-0.1
s(g465
g11
tp4229
F-0.2
s(g3549
g3445
tp4230
F0.1
s(g2798
g11
tp4231
F-0.1
s(S'U20:,/VB/TO'
p4232
g711
tp4233
F0.1
s(g915
g11
tp4234
F-0.2
s(S'U06:restated/commitment'
p4235
g1007
tp4236
F0.1
s(S'U01:substantial'
p4237
g449
tp4238
F0.1
s(S'U04:.'
p4239
g1688
tp4240
F0.1
s(g2555
g11
tp4241
F-0.1
s(g149
g1792
tp4242
F0.1
s(g3437
g11
tp4243
F-0.2
s(S'U17:JJ/CD'
p4244
g172
tp4245
F0.1
s(g4116
g11
tp4246
F-0.3
s(g2647
g356
tp4247
F0.1
s(g3850
g377
tp4248
F0.1
s(g4009
g11
tp4249
F-0.2
s(g1349
g108
tp4250
F0.3
s(g460
g11
tp4251
F-0.1
s(g222
g11
tp4252
F-0.4
s(S'U16:JJ/NNS'
p4253
g11
tp4254
F-0.2
s(S'U06:of/pressure'
p4255
g11
tp4256
F-0.1
s(S'U18:VBN/RB'
p4257
g691
tp4258
F0.1
s(g3407
g11
tp4259
F-0.1
s(S'U01:industry'
p4260
g1591
tp4261
F0.1
s(S'U05:The/August'
p4262
g11
tp4263
F-0.1
s(g1602
g11
tp4264
F-0.1
s(S'U18:,/VBD'
p4265
g1133
tp4266
F0.1
s(S'U01:exports'
p4267
g11
tp4268
F-0.1
s(S'U00:if'
p4269
g3463
tp4270
F0.1
s(S'U11:EX'
p4271
g155
tp4272
F0.3
s(S'U10:CD'
p4273
g269
tp4274
F0.1
s(S'U21:NNP/NNP/POS'
p4275
g11
tp4276
F-0.1
s(g1966
g2405
tp4277
F0.1
s(S'U18:CC/DT'
p4278
g11
tp4279
F-0.1
s(g2981
g74
tp4280
F0.1
s(g1914
g11
tp4281
F-0.1
s(S'U00:from'
p4282
g74
tp4283
F0.1
s(S'U06:fail/to'
p4284
g247
tp4285
F0.1
s(g3810
g74
tp4286
F0.1
s(g1598
g11
tp4287
F-0.1
s(S'U06:to/increase'
p4288
g64
tp4289
F0.1
s(g1250
g11
tp4290
F-0.1
s(S'U18:NNP/.'
p4291
g1688
tp4292
F0.1
s(S'U04:_B+2'
p4293
g74
tp4294
F1.0
s(g3754
g22
tp4295
F0.1
s(g3033
g11
tp4296
F-0.1
s(S'U20:VBZ/VBN/TO'
p4297
g11
tp4298
F-0.1
s(S'U21:NN/VBN/IN'
p4299
g11
tp4300
F-0.1
s(S'U01:senior'
p4301
g11
tp4302
F-0.1
s(S'U06:to/a'
p4303
g169
tp4304
F0.1
s(g3955
g11
tp4305
F-0.1
s(g3541
g697
tp4306
F3.0
s(g567
g11
tp4307
F-0.5
s(S'U17:(/$'
p4308
g74
tp4309
F0.1
s(g3781
g74
tp4310
F0.1
s(S'U00:their'
p4311
g11
tp4312
F-0.1
s(S'U20:POS/NN/TO'
p4313
g1769
tp4314
F0.1
s(g2561
g11
tp4315
F-0.2
s(g742
g108
tp4316
F0.1
s(S'U15:POS/JJ'
p4317
g3445
tp4318
F0.1
s(g2258
g1157
tp4319
F0.2
s(S'U21:NN/IN/NNS'
p4320
g178
tp4321
F0.1
s(g3284
g128
tp4322
F0.1
s(S"U05:'s/failure"
p4323
g11
tp4324
F-0.1
s(S'U21:NNS/IN/NNP'
p4325
g11
tp4326
F-0.1
s(S'U18:,/CC'
p4327
g11
tp4328
F-0.1
s(S'U15:VBN/DT'
p4329
g11
tp4330
F-0.1
s(S'U16:VBP/VBN'
p4331
g128
tp4332
F0.1
s(S"U02:''"
p4333
g74
tp4334
F0.2
s(g3793
g74
tp4335
F0.1
s(S'U15:CD/CD'
p4336
g11
tp4337
F-0.4
s(S'U00:down'
p4338
g11
tp4339
F-0.1
s(g1618
g581
tp4340
F0.1
s(g2196
g141
tp4341
F0.1
s(S'U20:POS/VBN/NN'
p4342
g11
tp4343
F-0.1
s(S'U04:Lawson'
p4344
g11
tp4345
F-0.1
s(S'U01:billion'
p4346
g136
tp4347
F0.2
s(g379
g1708
tp4348
F0.1
s(g727
g11
tp4349
F-1.1
s(g2305
g11
tp4350
F-0.1
s(g206
g1693
tp4351
F0.1
s(S'U13:('
p4352
g74
tp4353
F0.1
s(S'U05:&/Co.'
p4354
g1133
tp4355
F0.1
s(S'U06:economist/at'
p4356
g11
tp4357
F-0.2
s(g3291
g391
tp4358
F0.1
s(g3412
g74
tp4359
F0.1
s(S'U15:,/DT'
p4360
g1864
tp4361
F0.1
s(g2927
g8
tp4362
F0.1
s(S'U03:but'
p4363
g74
tp4364
F0.1
s(S'U12:NNq'
p4365
g294
tp4366
F4.4
s(g2784
g216
tp4367
F0.5
s(S'U11:JJ'
p4368
g11
tp4369
F-2.1
s(g3385
g11
tp4370
F-0.1
s(g1569
g11
tp4371
F-0.1
s(g3380
g11
tp4372
F-0.8
s(S"U04:''"
p4373
g916
tp4374
F0.1
s(g918
g11
tp4375
F-1.4
s(g1301
g74
tp4376
F0.1
s(S'U18:NNP/NNP'
p4377
g1502
tp4378
F0.2
s(S'U00:goods'
p4379
g74
tp4380
F0.1
s(S'U22:IN/NNP/NNPS'
p4381
g11
tp4382
F-0.1
s(S'U05:has/helped'
p4383
g328
tp4384
F0.1
s(S'U13:NN'
p4385
g11
tp4386
F-3.4
s(S'U06:#/2.2'
p4387
g1331
tp4388
F0.1
s(S'U20:RB/,/CC'
p4389
g11
tp4390
F-0.1
s(S'U18:IN/NNP'
p4391
g854
tp4392
F0.8
s(S'U13:JJ'
p4393
g11
tp4394
F-0.8
s(S'U22:VBN/DT/NN'
p4395
g11
tp4396
F-0.1
s(S'U06:#/2'
p4397
g74
tp4398
F0.1
s(S'U00:failure'
p4399
g11
tp4400
F-0.1
s(g1937
g11
tp4401
F-0.1
s(g3341
g136
tp4402
F0.1
s(S'U21:NN/NN/TO'
p4403
g11
tp4404
F-0.1
s(S'U20:VBP/RB/,'
p4405
g74
tp4406
F0.1
s(g2858
g11
tp4407
F-0.1
s(g1846
g2252
tp4408
F0.1
s(g4303
g11
tp4409
F-0.1
s(g3983
g11
tp4410
F-0.1
s(S'U06:near-record/deficits'
p4411
g762
tp4412
F0.1
s(g3102
g74
tp4413
F0.3
s(g4329
g79
tp4414
F0.1
s(S'U20:VBZ/RB/JJ'
p4415
g347
tp4416
F0.1
s(g3129
g19
tp4417
F0.1
s(g1363
g152
tp4418
F0.1
s(S'U22:VBN/NN/IN'
p4419
g3636
tp4420
F0.1
s(g1807
g11
tp4421
F-0.3
s(S'U06:awful/lot'
p4422
g2511
tp4423
F0.1
s(S'U21:NNP/NNP/.'
p4424
g2252
tp4425
F0.2
s(g1712
g169
tp4426
F0.2
s(S'U00:_B-2'
p4427
g74
tp4428
F0.4
s(g1438
g74
tp4429
F0.1
s(S'U16:NNP/IN'
p4430
g697
tp4431
F0.1
s(S'U18:CD/NN'
p4432
g1194
tp4433
F0.1
s(S'U05:near-record/deficits'
p4434
g11
tp4435
F-0.1
s(g3965
g11
tp4436
F-0.1
s(g3193
g11
tp4437
F-0.1
s(S'U05:foreign/exchange'
p4438
g11
tp4439
F-0.1
s(S'U01:government'
p4440
g11
tp4441
F-0.1
s(g3601
g812
tp4442
F0.1
s(S'U04:expected'
p4443
g599
tp4444
F0.1
s(S'U01:Montagu'
p4445
g11
tp4446
F-0.1
s(g2899
g11
tp4447
F-0.1
s(S'U13:DT'
p4448
g377
tp4449
F0.8
s(g1175
g1513
tp4450
F0.1
s(S'U06:from/July'
p4451
g11
tp4452
F-0.1
s(g3352
g74
tp4453
F0.1
s(S'U06:increased/the'
p4454
g1708
tp4455
F0.1
s(g729
g11
tp4456
F-0.1
s(S'U02:economists'
p4457
g11
tp4458
F-0.1
s(g4373
g11
tp4459
F-0.1
s(g2620
g11
tp4460
F-0.1
s(g973
g11
tp4461
F-0.1
s(g2288
g1792
tp4462
F0.1
s(S'U16:_B-1/``'
p4463
g11
tp4464
F-0.2
s(g706
g11
tp4465
F-0.6
s(g876
g11
tp4466
F-0.1
s(S'U00:to'
p4467
g581
tp4468
F0.2
s(S'U22:NN/,/PRP'
p4469
g11
tp4470
F-0.1
s(S'U04:Brothers'
p4471
g11
tp4472
F-0.1
s(g3574
g11
tp4473
F-0.1
s(S'U03:to'
p4474
g328
tp4475
F0.3
s(g1375
g1851
tp4476
F0.2
s(S"U06:chancellor/'s"
p4477
g11
tp4478
F-0.1
s(S'U04:he'
p4479
g3173
tp4480
F0.1
s(g2597
g74
tp4481
F0.1
s(S'U18:EX/VBZ'
p4482
g11
tp4483
F-0.2
s(S'U01:been'
p4484
g11
tp4485
F-0.1
s(S'U00:But'
p4486
g11
tp4487
F-0.1
s(S'U21:CC/NN/NNS'
p4488
g11
tp4489
F-0.1
s(g3638
g11
tp4490
F-0.2
s(S'U03:2.2'
p4491
g1331
tp4492
F0.1
s(S'U18:IN/NNS'
p4493
g11
tp4494
F-0.1
s(S'U06:to/boost'
p4495
g181
tp4496
F0.1
s(g3015
g11
tp4497
F-0.1
s(g2553
g572
tp4498
F0.1
s(S'U17:IN/NN'
p4499
g11
tp4500
F-0.6
s(S'U10:CD'
p4501
g14
tp4502
F0.1
s(g971
g14
tp4503
F0.1
s(S'U06:over/the'
p4504
g289
tp4505
F0.1
s(g3603
g1263
tp4506
F0.1
s(S'U00:transforming'
p4507
g181
tp4508
F0.1
s(S'U21:VBG/NN/IN'
p4509
g1188
tp4510
F0.1
s(g532
g1792
tp4511
F0.1
s(g3131
g11
tp4512
F-0.1
s(g1612
g1266
tp4513
F0.1
s(S'U13:NN'
p4514
g1061
tp4515
F0.1
s(g1381
g47
tp4516
F0.1
s(g4073
g2354
tp4517
F0.1
s(g3764
g1513
tp4518
F0.1
s(S'U21:NNS/IN/PRP$'
p4519
g11
tp4520
F-0.1
s(S'U10:,'
p4521
g74
tp4522
F0.1
s(g4232
g11
tp4523
F-0.1
s(S'U00:,'
p4524
g1502
tp4525
F0.4
s(g4013
g11
tp4526
F-0.1
s(g2639
g719
tp4527
F0.6
s(S'U01:forced'
p4528
g11
tp4529
F-0.1
s(S'U00:Brothers'
p4530
g11
tp4531
F-0.1
s(g444
g3445
tp4532
F0.1
s(g3403
g11
tp4533
F-0.1
s(g2012
g11
tp4534
F-0.1
s(g2185
g74
tp4535
F0.1
s(S'U02:sign'
p4536
g1540
tp4537
F0.1
s(S'U04:current'
p4538
g987
tp4539
F0.2
s(g3944
g405
tp4540
F0.1
s(S'U15:IN/NNS'
p4541
g11
tp4542
F-0.1
s(g3567
g11
tp4543
F-0.1
s(S'U10:VBD'
p4544
g11
tp4545
F-0.4
s(S'U06:Briscoe/,'
p4546
g11
tp4547
F-0.1
s(S'U01:level'
p4548
g194
tp4549
F0.1
s(S'U05:from/the'
p4550
g11
tp4551
F-0.1
s(S'U10:#'
p4552
g339
tp4553
F0.2
s(g3004
g11
tp4554
F-0.3
s(g1710
g69
tp4555
F0.1
s(S'U06:to/defend'
p4556
g194
tp4557
F0.1
s(S'U01:an'
p4558
g2511
tp4559
F0.1
s(S'U20:VBP/DT/NNS'
p4560
g11
tp4561
F-0.1
s(S'U04:show'
p4562
g247
tp4563
F0.1
s(S'U04:Exchequer'
p4564
g11
tp4565
F-0.1
s(g4521
g11
tp4566
F-1.1
s(g472
g328
tp4567
F0.1
s(S'U13:_B+1'
p4568
g74
tp4569
F1.0
s(S'U02:15'
p4570
g11
tp4571
F-0.1
s(g3134
g11
tp4572
F-0.1
s(S'U01:analysts'
p4573
g11
tp4574
F-0.2
s(g2280
g11
tp4575
F-0.1
s(S'U22:IN/NNP/VBP'
p4576
g11
tp4577
F-0.1
s(S'U17:VB/DT'
p4578
g377
tp4579
F0.7
s(S'U00:are'
p4580
g700
tp4581
F0.1
s(S'U18:VBN/TO'
p4582
g33
tp4583
F0.1
s(S'U22:VBP/VBN/RB'
p4584
g691
tp4585
F0.1
s(g3332
g11
tp4586
F-0.1
s(g2158
g11
tp4587
F-0.1
s(S'U18:NN/NN'
p4588
g436
tp4589
F0.1
s(g619
g632
tp4590
F0.1
s(S'U05:he/remains'
p4591
g11
tp4592
F-0.1
s(g3485
g11
tp4593
F-0.1
s(g3301
g11
tp4594
F-0.1
s(S'U06:boost/exports'
p4595
g160
tp4596
F0.1
s(g1287
g415
tp4597
F0.1
s(S'U21:VBP/./_B+1'
p4598
g74
tp4599
F0.1
s(S'U21:JJ/NNP/NN'
p4600
g11
tp4601
F-0.1
s(S'U02:measures'
p4602
g11
tp4603
F-0.1
s(S'U22:CD/CD/)'
p4604
g11
tp4605
F-0.1
s(S'U21:NNP/CD/.'
p4606
g213
tp4607
F0.1
s(g4381
g1202
tp4608
F0.1
s(S'U18:DT/#'
p4609
g1211
tp4610
F0.2
s(g4389
g74
tp4611
F0.1
s(S'U01:failure'
p4612
g11
tp4613
F-0.1
s(g2037
g181
tp4614
F0.1
s(S'U20:NNS/NNS/.'
p4615
g11
tp4616
F-0.1
s(g2169
g266
tp4617
F0.3
s(g2230
g1194
tp4618
F0.1
s(g4427
g11
tp4619
F-0.5
s(S'U21:JJ/NN/CC'
p4620
g11
tp4621
F-0.1
s(S'U05:due/for'
p4622
g436
tp4623
F0.1
s(g939
g581
tp4624
F0.1
s(g2971
g11
tp4625
F-0.8
s(g242
g11
tp4626
F-0.2
s(S'U02:registered'
p4627
g11
tp4628
F-0.1
s(S'U05:the/risk'
p4629
g11
tp4630
F-0.1
s(g3681
g74
tp4631
F0.1
s(g37
g1028
tp4632
F0.1
s(S'U22:RB/IN/DT'
p4633
g700
tp4634
F0.1
s(S'U21:VBN/NN/IN'
p4635
g792
tp4636
F0.1
s(S'U03:the'
p4637
g1708
tp4638
F0.2
s(S'U15:RB/VBN'
p4639
g11
tp4640
F-0.2
s(S'U17:,/DT'
p4641
g74
tp4642
F0.1
s(S'U00:August'
p4643
g11
tp4644
F-0.2
s(g4284
g11
tp4645
F-0.1
s(g3500
g2052
tp4646
F0.2
s(g4059
g1336
tp4647
F0.1
s(S'U11:NNS'
p4648
g11
tp4649
F-1.6
s(g4200
g967
tp4650
F0.1
s(S'U06:substantial/improvement'
p4651
S'I-NP'
p4652
tp4653
F0.1
s(S'U20:NN/VBZ/RB'
p4654
g33
tp4655
F0.1
s(g4560
g635
tp4656
F0.1
s(S'U21:NN/VBP/RB'
p4657
g11
tp4658
F-0.1
s(g831
g800
tp4659
F0.1
s(S'U13:PRP'
p4660
g933
tp4661
F0.1
s(g4275
g30
tp4662
F0.1
s(S'U21:_B-1/``/IN'
p4663
g11
tp4664
F-0.1
s(S'U01:outlook'
p4665
g11
tp4666
F-0.1
s(g3456
g3636
tp4667
F0.1
s(g2559
g74
tp4668
F0.1
s(g3998
g74
tp4669
F0.1
s(S'U18:NN/VBZ'
p4670
g470
tp4671
F0.1
s(S'U15:VBG/VBN'
p4672
g11
tp4673
F-0.1
s(S'U05:Research/Institute'
p4674
g11
tp4675
F-0.1
s(g2772
g74
tp4676
F0.1
s(g1077
g11
tp4677
F-0.1
s(S'U01:heavily'
p4678
g11
tp4679
F-0.1
s(S'U00:very'
p4680
g792
tp4681
F0.1
s(g1098
g11
tp4682
F-0.1
s(g870
g1331
tp4683
F0.1
s(S'U15:NNP/NN'
p4684
g74
tp4685
F0.1
s(g4164
g11
tp4686
F-0.4
s(S'U18:NN/VBZ'
p4687
g47
tp4688
F0.2
s(g4257
g11
tp4689
F-0.1
s(S'U03:widely'
p4690
g800
tp4691
F0.2
s(S'U02:number'
p4692
g279
tp4693
F0.1
s(g861
g11
tp4694
F-0.1
s(g1113
g11
tp4695
F-0.2
s(S'U05:analysts/say'
p4696
g879
tp4697
F0.1
s(g795
g74
tp4698
F0.1
s(g1685
g11
tp4699
F-0.1
s(S'U03:another'
p4700
g1341
tp4701
F0.1
s(g1752
g11
tp4702
F-0.3
s(S'U16:NN/IN'
p4703
g1061
tp4704
F0.2
s(g4528
g64
tp4705
F0.1
s(g268
g11
tp4706
F-0.1
s(S'U18:IN/NN'
p4707
g1122
tp4708
F0.1
s(S'U15:IN/EX'
p4709
g19
tp4710
F0.1
s(S'U20:VBN/VBN/IN'
p4711
g11
tp4712
F-0.1
s(S'U16:$/CD'
p4713
g11
tp4714
F-0.1
s(g1173
g11
tp4715
F-0.1
s(g4255
g1304
tp4716
F0.1
s(S'U15:NN/JJ'
p4717
g108
tp4718
F0.2
s(S'U02:awful'
p4719
g2511
tp4720
F0.1
s(S'U03:defend'
p4721
g11
tp4722
F-0.1
s(S'U01:pessimistic'
p4723
g356
tp4724
F0.1
s(g271
g11
tp4725
F-0.1
s(g4430
g11
tp4726
F-0.1
s(S'U00:awful'
p4727
g11
tp4728
F-0.1
s(g474
g599
tp4729
F0.1
s(S'U06:current/15'
p4730
g172
tp4731
F0.1
s(g4696
g11
tp4732
F-0.1
s(S'U05:high/consumer'
p4733
g11
tp4734
F-0.1
s(S'U04:number'
p4735
g11
tp4736
F-0.1
s(S'U04:substantial'
p4737
g1632
tp4738
F0.1
s(g1774
g11
tp4739
F-0.1
s(S'U21:VBZ/RB/VBN'
p4740
g33
tp4741
F0.1
s(S'U05:billion/-RRB-'
p4742
g74
tp4743
F0.1
s(S'U17:VBG/PRP'
p4744
g933
tp4745
F0.1
s(S'U18:IN/DT'
p4746
g700
tp4747
F0.1
s(g1107
g11
tp4748
F-0.1
s(S'U06:heavily/on'
p4749
g96
tp4750
F0.1
s(S'U05:Baring/Brothers'
p4751
g11
tp4752
F-0.1
s(g4217
g11
tp4753
F-0.1
s(g4185
g1007
tp4754
F0.1
s(S'U15:IN/PRP$'
p4755
g172
tp4756
F0.2
s(S'U20:RB/RB/IN'
p4757
g11
tp4758
F-0.1
s(g3158
g377
tp4759
F0.1
s(S'U05:Forecasts/for'
p4760
g1485
tp4761
F0.1
s(g1578
g11
tp4762
F-0.1
s(g609
g11
tp4763
F-0.1
s(S'U05:substantial/improvement'
p4764
g449
tp4765
F0.1
s(S'U14:VBD'
p4766
g141
tp4767
F0.2
s(S'U21:PRP/VBZ/RB'
p4768
g1243
tp4769
F0.1
s(g1295
g11
tp4770
F-0.7
s(S'U02:same'
p4771
g11
tp4772
F-0.1
s(S'U20:PRP$/NNP/NNP'
p4773
g11
tp4774
F-0.1
s(g1785
g74
tp4775
F0.1
s(S'U06:and/capital'
p4776
g175
tp4777
F0.1
s(S'U21:NNP/CC/NNP'
p4778
g1012
tp4779
F0.1
s(g4622
g11
tp4780
F-0.1
s(g2722
g1502
tp4781
F0.2
s(S'U13:,'
p4782
g125
tp4783
F0.1
s(S'U06:the/#'
p4784
g74
tp4785
F0.1
s(S'U06:of/Midland'
p4786
S'B-PP'
p4787
tp4788
F0.1
s(S'U01:no'
p4789
g1540
tp4790
F0.1
s(g3144
g649
tp4791
F0.3
s(g3622
g11
tp4792
F-0.1
s(g992
g74
tp4793
F0.1
s(g3985
g11
tp4794
F-0.1
s(S'U06:widely/,'
p4795
g11
tp4796
F-0.1
s(g3303
g339
tp4797
F0.1
s(S'U06:about/the'
p4798
g356
tp4799
F0.1
s(g4627
g269
tp4800
F0.1
s(S'U05:Nomura/Research'
p4801
g25
tp4802
F0.1
s(g980
g11
tp4803
F-0.1
s(S'U10:NN'
p4804
g1194
tp4805
F0.5
s(S'U06:that/Britain'
p4806
g225
tp4807
F0.1
s(g900
g599
tp4808
F0.2
s(g2956
g11
tp4809
F-0.2
s(S"U17:,/''"
p4810
g74
tp4811
F0.2
s(g2399
g74
tp4812
F0.1
s(g1796
g11
tp4813
F-0.1
s(g2731
g74
tp4814
F0.1
s(g4271
g11
tp4815
F-0.3
s(S'U01:marked'
p4816
g792
tp4817
F0.1
s(g1681
g827
tp4818
F0.2
s(S'U13:.'
p4819
g152
tp4820
F0.7
s(g2262
g11
tp4821
F-0.1
s(S'U22:NN/IN/NNP'
p4822
g854
tp4823
F0.7
s(g4469
g3173
tp4824
F0.1
s(S'U17:NNS/NNS'
p4825
g11
tp4826
F-0.1
s(S'U06:account/reported'
p4827
g11
tp4828
F-0.1
s(S'U22:CD/)/NN'
p4829
g74
tp4830
F0.1
s(g1297
g11
tp4831
F-0.1
s(S'U22:RB/RB/IN'
p4832
g133
tp4833
F0.1
s(g3672
g1534
tp4834
F0.1
s(S'U22:NN/VBD/IN'
p4835
g11
tp4836
F-0.1
s(S'U16:DT/JJ'
p4837
g11
tp4838
F-1.0
s(g4711
g2052
tp4839
F0.1
s(g4333
g11
tp4840
F-0.2
s(S'U04:Research'
p4841
g1058
tp4842
F0.1
s(g1338
g11
tp4843
F-0.1
s(S'U10:VBP'
p4844
g74
tp4845
F0.1
s(g1896
g74
tp4846
F0.1
s(S'U20:VBZ/RB/VBN'
p4847
g42
tp4848
F0.1
s(S'U02:bad'
p4849
g11
tp4850
F-0.2
s(g1278
g74
tp4851
F0.2
s(S'U17:#/CD'
p4852
g74
tp4853
F0.1
s(g2424
g30
tp4854
F0.4
s(S'U02:&'
p4855
g415
tp4856
F0.1
s(S'U18:NN/VBD'
p4857
g11
tp4858
F-0.1
s(S'U14:NNP'
p4859
g82
tp4860
F1.2
s(g2234
g1394
tp4861
F0.1
s(g2728
g11
tp4862
F-0.2
s(g2163
g11
tp4863
F-0.2
s(S'U02:expected'
p4864
g11
tp4865
F-0.1
s(S'U12:CDq'
p4866
g307
tp4867
F0.6
s(S'U03:gap'
p4868
g11
tp4869
F-0.1
s(g4672
g64
tp4870
F0.1
s(g4519
g3229
tp4871
F0.1
s(g4454
g11
tp4872
F-0.1
s(g4004
g11
tp4873
F-0.1
s(S'U11:``'
p4874
g11
tp4875
F-0.1
s(S'U01:Nigel'
p4876
g11
tp4877
F-0.1
s(g4663
g74
tp4878
F0.1
s(S'U03:economist'
p4879
g2019
tp4880
F0.1
s(g1051
g74
tp4881
F0.2
s(g1608
g11
tp4882
F-0.1
s(g1345
g987
tp4883
F0.1
s(g4153
g11
tp4884
F-0.1
s(g1833
g11
tp4885
F-0.1
s(g3969
g47
tp4886
F1.6
s(g1827
g11
tp4887
F-0.1
s(g438
g11
tp4888
F-3.0
s(S'U21:,/VBD/EX'
p4889
g350
tp4890
F0.1
s(g238
g5
tp4891
F0.3
s(g3668
g74
tp4892
F0.1
s(g2151
g394
tp4893
F0.2
s(S'U21:JJ/NN/.'
p4894
g152
tp4895
F0.1
s(g4773
g572
tp4896
F0.1
s(S'U06:failure/to'
p4897
g11
tp4898
F-0.1
s(S'U21:NN/NNS/IN'
p4899
g11
tp4900
F-0.2
s(g3708
g11
tp4901
F-0.1
s(S'U20:_B-2/_B-1/CC'
p4902
g74
tp4903
F0.1
s(S'U00:,'
p4904
g711
tp4905
F0.1
s(S'U00:policy'
p4906
g3229
tp4907
F0.1
s(S'U00:base'
p4908
g11
tp4909
F-0.1
s(g4419
g11
tp4910
F-0.1
s(g4047
g1007
tp4911
F0.1
s(g2356
g854
tp4912
F0.1
s(S'U06:in/July'
p4913
g11
tp4914
F-0.1
s(S'U13:IN'
p4915
g96
tp4916
F0.1
s(S'U16:RB/,'
p4917
g11
tp4918
F-0.1
s(g4486
g868
tp4919
F0.1
s(S'U18:NNP/CD'
p4920
g807
tp4921
F0.1
s(g2465
g944
tp4922
F0.1
s(g3967
g11
tp4923
F-0.2
s(S'U06:,/but'
p4924
g74
tp4925
F0.1
s(S'U02:If'
p4926
g845
tp4927
F0.1
s(g469
g11
tp4928
F-0.1
s(g4182
g74
tp4929
F0.2
s(g3325
g1705
tp4930
F0.1
s(g489
g74
tp4931
F0.1
s(S'U03:only'
p4932
g128
tp4933
F0.1
s(S'U11:RB'
p4934
g3636
tp4935
F0.1
s(g2333
g11
tp4936
F-0.1
s(S'U16:NNS/TO'
p4937
g11
tp4938
F-0.2
s(S'U11:VBG'
p4939
g1188
tp4940
F0.1
s(S'U05:#/2.2'
p4941
g93
tp4942
F0.1
s(g522
g11
tp4943
F-0.6
s(S'U00:for'
p4944
g2123
tp4945
F0.2
s(g4424
g11
tp4946
F-0.2
s(S'U00:figure'
p4947
g133
tp4948
F0.1
s(S'U14:VBP'
p4949
g2297
tp4950
F0.1
s(S'U01:fairly'
p4951
g11
tp4952
F-0.1
s(S'U06:to/take'
p4953
g11
tp4954
F-0.1
s(S'U20:_B-1/NNS/IN'
p4955
g1485
tp4956
F0.1
s(S'U18:NNP/NNP'
p4957
g82
tp4958
F0.1
s(S'U04:$'
p4959
g11
tp4960
F-0.1
s(S'U03:2.3'
p4961
g3180
tp4962
F0.1
s(g1435
g11
tp4963
F-0.1
s(S'U06:past/week'
p4964
g719
tp4965
F0.1
s(S'U02:been'
p4966
g1114
tp4967
F0.1
s(S'U00:defend'
p4968
g11
tp4969
F-0.1
s(S'U05:goods/inflows'
p4970
g11
tp4971
F-0.1
s(g3431
g11
tp4972
F-0.1
s(g2292
g11
tp4973
F-0.2
s(g3977
g1864
tp4974
F0.1
s(g4077
g11
tp4975
F-0.1
s(g675
g11
tp4976
F-0.1
s(g1268
g868
tp4977
F0.1
s(g3685
g11
tp4978
F-0.2
s(S'U04:is'
p4979
g845
tp4980
F0.1
s(S'U05:reported/for'
p4981
g11
tp4982
F-0.1
s(S'U22:CD/NN/IN'
p4983
g2354
tp4984
F0.1
s(g2960
g96
tp4985
F0.1
s(S'U02:announce'
p4986
g11
tp4987
F-0.1
s(S'U06:Thursday/.'
p4988
g3616
tp4989
F0.1
s(g3963
g749
tp4990
F0.1
s(S'U21:VBG/VBN/TO'
p4991
g1513
tp4992
F0.1
s(g2968
g11
tp4993
F-0.1
s(S'U17:NN/JJ'
p4994
g581
tp4995
F0.2
s(S'U06:and/the'
p4996
g74
tp4997
F0.1
s(g3358
g289
tp4998
F0.1
s(S'U21:DT/NN/IN'
p4999
g394
tp5000
F0.5
s(S'U05:billion/-LRB-'
p5001
g11
tp5002
F-0.1
s(S'U04:Midland'
p5003
g4005
tp5004
F0.2
s(g220
g11
tp5005
F-0.1
s(S'U02:Montagu'
p5006
g336
tp5007
F0.1
s(S'U13:IN'
p5008
g433
tp5009
F0.2
s(g787
g1851
tp5010
F0.2
s(g3959
g11
tp5011
F-0.1
s(S'U17:VB/NN'
p5012
g11
tp5013
F-0.1
s(g3847
g307
tp5014
F0.1
s(S'U11:VB'
p5015
g11
tp5016
F-0.1
s(S'U10:VBP'
p5017
g700
tp5018
F0.1
s(S'U17:CD/('
p5019
g74
tp5020
F0.1
s(S'U04:same'
p5021
g11
tp5022
F-0.1
s(S'U04:speech'
p5023
g391
tp5024
F0.1
s(g2713
g691
tp5025
F0.1
s(S'U14:IN'
p5026
g496
tp5027
F0.1
s(S'U02:Briscoe'
p5028
g11
tp5029
F-0.1
s(g2818
g1502
tp5030
F0.1
s(g3514
g74
tp5031
F0.1
s(S'U04:,'
p5032
g1015
tp5033
F0.3
s(g448
g11
tp5034
F-0.2
s(S'U14:DT'
p5035
g96
tp5036
F0.1
s(S'U15:VBN/VBN'
p5037
g2052
tp5038
F0.1
s(g1604
g74
tp5039
F0.2
s(S'U04:level'
p5040
g307
tp5041
F0.1
s(S'U01:,'
p5042
g247
tp5043
F0.2
s(S'U05:no/sign'
p5044
g1540
tp5045
F0.1
s(S'U05:U.K./economist'
p5046
g11
tp5047
F-0.2
s(S'U05:has/increased'
p5048
g11
tp5049
F-0.1
s(S'U13:CD'
p5050
g74
tp5051
F0.3
s(S'U11:RB'
p5052
g42
tp5053
F0.1
s(g4167
g1012
tp5054
F0.1
s(g3537
g11
tp5055
F-0.1
s(S'U20:NNP/NNPS/CC'
p5056
g11
tp5057
F-0.1
s(g3067
g11
tp5058
F-0.1
s(S'U00:expected'
p5059
g1341
tp5060
F0.1
s(g3719
g11
tp5061
F-0.1
s(S'U04:billion'
p5062
g14
tp5063
F0.1
s(S'U16:NNS/TO'
p5064
g353
tp5065
F0.1
s(S'U15:NN/CC'
p5066
g974
tp5067
F0.1
s(g4491
g11
tp5068
F-0.1
s(S'U03:said'
p5069
g74
tp5070
F0.2
s(S'U22:NN/NNS/VBP'
p5071
g959
tp5072
F0.2
s(S'U20:VBN/RB/IN'
p5073
g2715
tp5074
F0.1
s(g1653
g74
tp5075
F0.1
s(g302
g11
tp5076
F-0.1
s(S'U20:VBZ/DT/JJ'
p5077
S'I-NP'
p5078
tp5079
F0.1
s(S'U21:JJ/NNS/VBP'
p5080
g11
tp5081
F-0.1
s(g2592
g11
tp5082
F-0.1
s(S'U17:RB/IN'
p5083
g700
tp5084
F0.1
s(S'U22:CD/CD/NN'
p5085
g93
tp5086
F0.2
s(S'U18:NNS/.'
p5087
g160
tp5088
F0.1
s(g4509
g11
tp5089
F-0.1
s(g1053
g458
tp5090
F0.2
s(g3594
g11
tp5091
F-0.2
s(g5048
g1708
tp5092
F0.1
s(S'U20:,/EX/MD'
p5093
g944
tp5094
F0.1
s(S'U22:RB/VBN/NN'
p5095
g11
tp5096
F-0.1
s(S'U15:,/JJ'
p5097
g2019
tp5098
F0.2
s(g4541
g74
tp5099
F0.1
s(g4397
g11
tp5100
F-0.1
s(S'U06:Co./,'
p5101
g11
tp5102
F-0.1
s(S'U18:CD/)'
p5103
g11
tp5104
F-0.1
s(S'U22:NNP/NNP/.'
p5105
g25
tp5106
F0.2
s(g1640
g11
tp5107
F-0.1
s(g1247
g697
tp5108
F0.1
s(S'U18:VBZ/RB'
p5109
g2064
tp5110
F0.1
s(S'U03:September'
p5111
g11
tp5112
F-0.1
s(g2882
g11
tp5113
F-0.1
s(g678
g990
tp5114
F0.1
s(g2916
g11
tp5115
F-0.6
s(g684
g921
tp5116
F0.1
s(S'U02:billion'
p5117
g339
tp5118
F0.2
s(g1450
g11
tp5119
F-0.6
s(g1531
g11
tp5120
F-0.2
s(S'U05:September/,'
p5121
g74
tp5122
F0.1
s(g2703
g85
tp5123
F0.1
s(S'U05:unit/of'
p5124
g11
tp5125
F-0.1
s(g13
g11
tp5126
F-0.1
s(g3721
g3463
tp5127
F0.1
s(g4422
g11
tp5128
F-0.1
s(g4678
g333
tp5129
F0.1
s(S'U12:TOq'
p5130
g272
tp5131
F0.4
s(S'U03:lot'
p5132
g2511
tp5133
F0.1
s(S'U00:be'
p5134
g11
tp5135
F-0.1
s(g3798
g11
tp5136
F-0.1
s(S'U05:another/bad'
p5137
g11
tp5138
F-0.1
s(S'U21:CC/NNP/,'
p5139
g1133
tp5140
F0.1
s(g1148
g30
tp5141
F0.3
s(g2078
g11
tp5142
F-1.1
s(g2503
g11
tp5143
F-0.2
s(g3356
g700
tp5144
F0.1
s(g4615
g74
tp5145
F0.1
s(g3643
g11
tp5146
F-0.1
s(S'U14:PRP'
p5147
g1591
tp5148
F0.1
s(g1479
g3636
tp5149
F0.2
s(S'U00:European'
p5150
g1202
tp5151
F0.1
s(g1669
g11
tp5152
F-0.1
s(g4044
g136
tp5153
F0.1
s(S'U16:NNP/CD'
p5154
g213
tp5155
F0.1
s(g3812
g11
tp5156
F-0.1
s(g1369
g1061
tp5157
F0.1
s(S'U05:market/analysts'
p5158
g11
tp5159
F-0.1
s(S'U03:say'
p5160
g11
tp5161
F-0.1
s(S'U05:bad/trade'
p5162
g1004
tp5163
F0.2
s(S'U04:figures'
p5164
g1061
tp5165
F0.1
s(g1396
g632
tp5166
F0.1
s(S'U00:said'
p5167
g155
tp5168
F0.1
s(g3859
g96
tp5169
F0.1
s(S'U05:imports/,'
p5170
g11
tp5171
F-0.1
s(g120
g458
tp5172
F0.4
s(g3046
g11
tp5173
F-0.1
s(S'U05:new/policy'
p5174
g2126
tp5175
F0.1
s(S'U00:October'
p5176
g74
tp5177
F0.1
s(g757
g1122
tp5178
F0.1
s(g2842
g74
tp5179
F0.1
s(S'U10:('
p5180
g74
tp5181
F0.1
s(g2453
g749
tp5182
F0.1
s(g4751
g990
tp5183
F0.1
s(S'U11:VBZ'
p5184
g11
tp5185
F-0.6
s(S'U15:DT/NN'
p5186
g225
tp5187
F0.1
s(S'U17:VBN/NN'
p5188
g11
tp5189
F-0.2
s(g3528
g11
tp5190
F-0.1
s(S'U05:figures/for'
p5191
g1015
tp5192
F0.1
s(g3151
g1133
tp5193
F0.1
s(S'U17:CC/DT'
p5194
g74
tp5195
F0.1
s(g690
g11
tp5196
F-0.1
s(S'U02:in'
p5197
g11
tp5198
F-0.5
s(S'U17:,/NNP'
p5199
g74
tp5200
F0.1
s(S'U03:in'
p5201
g269
tp5202
F0.1
s(S'U04:Dillow'
p5203
g1502
tp5204
F0.1
s(g2007
g1263
tp5205
F0.1
s(g3694
g74
tp5206
F0.1
s(g4996
g11
tp5207
F-0.1
s(S'U20:DT/NN/IN'
p5208
g225
tp5209
F0.1
s(S'U21:JJ/NN/IN'
p5210
g11
tp5211
F-0.4
s(g2429
g11
tp5212
F-0.2
s(S'U04:the'
p5213
g79
tp5214
F0.4
s(S'U05:,/but'
p5215
g11
tp5216
F-0.1
s(g316
g108
tp5217
F0.1
s(S'U01:imports'
p5218
g74
tp5219
F0.1
s(S'U02:-RRB-'
p5220
g74
tp5221
F0.1
s(S'U20:NN/NNS/IN'
p5222
g11
tp5223
F-0.2
s(g3093
g74
tp5224
F0.1
s(S'U16:EX/MD'
p5225
g11
tp5226
F-0.1
s(S'U05:a/substantial'
p5227
g11
tp5228
F-0.1
s(g310
g213
tp5229
F0.1
s(S'U01:very'
p5230
g96
tp5231
F0.1
s(g2600
g11
tp5232
F-0.1
s(g298
g11
tp5233
F-0.1
s(g641
g11
tp5234
F-0.1
s(g4742
g11
tp5235
F-0.1
s(S'U02:support'
p5236
g1188
tp5237
F0.1
s(S'U14:CC'
p5238
g1457
tp5239
F0.1
s(g4356
g854
tp5240
F0.2
s(S'U02:new'
p5241
g11
tp5242
F-0.1
s(g4959
g74
tp5243
F0.1
s(g4237
g11
tp5244
F-0.1
s(g208
g1591
tp5245
F0.1
s(S'U11:,'
p5246
g1122
tp5247
F0.1
s(g2623
g11
tp5248
F-0.1
s(g4657
g785
tp5249
F0.1
s(S'U02:pessimistic'
p5250
g347
tp5251
F0.1
s(g2364
g11
tp5252
F-0.1
s(g4311
g307
tp5253
F0.1
s(S'U16:NNPS/CC'
p5254
g11
tp5255
F-0.1
s(g76
g74
tp5256
F0.1
s(g4737
g11
tp5257
F-0.1
s(g1558
g74
tp5258
F0.1
s(g4391
g11
tp5259
F-1.0
s(g4000
g11
tp5260
F-0.1
s(S'U03:an'
p5261
g1792
tp5262
F0.1
s(S'U01:unit'
p5263
g11
tp5264
F-0.1
s(g1017
g11
tp5265
F-0.1
s(S'U18:NN/IN'
p5266
g2019
tp5267
F0.6
s(g1270
g537
tp5268
F0.8
s(S'U15:IN/NN'
p5269
g3463
tp5270
F0.1
s(g2122
g11
tp5271
F-0.1
s(g2370
g11
tp5272
F-1.0
s(S'U05:rates/to'
p5273
g11
tp5274
F-0.1
s(g57
g47
tp5275
F0.1
s(S'U22:,/DT/NN'
p5276
g11
tp5277
F-0.1
s(S'U22:NN/NN/VBP'
p5278
g11
tp5279
F-0.1
s(S'U01:his'
p5280
g391
tp5281
F0.1
s(S'U20:CD/CD/NN'
p5282
g11
tp5283
F-0.2
s(S'U11:MD'
p5284
g1792
tp5285
F0.1
s(S'U05:to/defend'
p5286
g928
tp5287
F0.1
s(g4041
g11
tp5288
F-0.1
s(S'U21:TO/VB/NN'
p5289
g8
tp5290
F0.1
s(g4598
g11
tp5291
F-0.1
s(g2748
g11
tp5292
F-0.1
s(g5006
g11
tp5293
F-0.1
s(S'U04:very'
p5294
g1851
tp5295
F0.1
s(S'U18:IN/PRP$'
p5296
g11
tp5297
F-0.2
s(g1743
g11
tp5298
F-0.1
s(S'U01:tomorrow'
p5299
g74
tp5300
F0.1
s(S'U22:VBN/VBD/JJ'
p5301
g69
tp5302
F0.1
s(S'U15:VBP/DT'
p5303
g635
tp5304
F0.1
s(S'U20:VBD/JJ/NN'
p5305
g1028
tp5306
F0.1
s(S'U11:VBP'
p5307
g11
tp5308
F-0.4
s(g1900
g74
tp5309
F0.1
s(S'U17:NN/TO'
p5310
g294
tp5311
F0.3
s(g989
g11
tp5312
F-0.1
s(g3251
g11
tp5313
F-0.1
s(g4336
g74
tp5314
F0.2
s(S'U10:IN'
p5315
g289
tp5316
F0.2
s(S'U05:Co./,'
p5317
g11
tp5318
F-0.1
s(g3581
g155
tp5319
F0.1
s(S'U06:figure/are'
p5320
g11
tp5321
F-0.1
s(S'U03:release'
p5322
g11
tp5323
F-0.1
s(S'U18:JJ/NN'
p5324
g581
tp5325
F0.1
s(g4620
g1028
tp5326
F0.1
s(S'U14:.'
p5327
g160
tp5328
F0.1
s(S'U22:VB/TO/VB'
p5329
g247
tp5330
F0.1
s(g44
g928
tp5331
F0.1
s(g3036
g11
tp5332
F-0.1
s(S'U00:gap'
p5333
g2297
tp5334
F0.1
s(g4323
g2405
tp5335
F0.1
s(S'U04:Briscoe'
p5336
g11
tp5337
F-0.1
s(g3321
g463
tp5338
F0.1
s(S'U04:gap'
p5339
g11
tp5340
F-0.1
s(g3676
g676
tp5341
F0.1
s(S'U22:NN/NN/VBZ'
p5342
g11
tp5343
F-0.1
s(S'U15:PRP/VBZ'
p5344
g496
tp5345
F0.1
s(S'U00:-RRB-'
p5346
g11
tp5347
F-0.1
s(S'U22:RB/,/CC'
p5348
g11
tp5349
F-0.1
s(g2223
g11
tp5350
F-1.0
s(g4648
g1194
tp5351
F0.5
s(S'U14:TO'
p5352
g74
tp5353
F0.1
s(g3253
g11
tp5354
F-0.1
s(g4544
g1157
tp5355
F0.3
s(S'U22:RB/JJ/IN'
p5356
g11
tp5357
F-0.1
s(S'U04:deficit'
p5358
S'I-NP'
p5359
tp5360
F0.1
s(g3806
g987
tp5361
F0.1
s(g1027
g11
tp5362
F-0.1
s(g1727
g74
tp5363
F0.1
s(g2589
g11
tp5364
F-0.1
s(g2871
g74
tp5365
F0.1
s(g4499
g5
tp5366
F0.5
s(g2269
g11
tp5367
F-0.1
s(S'U15:DT/NNS'
p5368
g11
tp5369
F-0.2
s(g3900
g11
tp5370
F-0.1
s(S'U17:,/CC'
p5371
g74
tp5372
F0.1
s(S'U11:NNS'
p5373
g74
tp5374
F0.5
s(S'U06:has/increased'
p5375
g85
tp5376
F0.1
s(g3270
g944
tp5377
F0.1
s(g3383
g1540
tp5378
F0.2
s(S'U04:pound'
p5379
g3497
tp5380
F0.1
s(S'U01:3.2'
p5381
g11
tp5382
F-0.1
s(S'U05:manufacturing/industry'
p5383
g749
tp5384
F0.1
s(S'U20:PRP/VBZ/RB'
p5385
g11
tp5386
F-0.1
s(S'U03:expect'
p5387
g1534
tp5388
F0.1
s(S'U04:deficit'
p5389
g74
tp5390
F0.1
s(g671
g11
tp5391
F-0.1
s(g4600
g2019
tp5392
F0.1
s(g603
g990
tp5393
F0.1
s(g3354
g342
tp5394
F0.1
s(S'U22:JJ/NN/NNS'
p5395
g11
tp5396
F-0.1
s(g2651
g11
tp5397
F-0.1
s(S'U02:is'
p5398
g599
tp5399
F0.4
s(S'U04:_B+1'
p5400
g879
tp5401
F0.1
s(S'U04:October'
p5402
g11
tp5403
F-0.1
s(g3852
g1136
tp5404
F0.1
s(S'U03:be'
p5405
g944
tp5406
F0.1
s(g2228
g2405
tp5407
F0.1
s(S'U22:``/DT/NNS'
p5408
g74
tp5409
F0.1
s(g4032
g676
tp5410
F0.1
s(g251
g152
tp5411
F0.1
s(S'U04:the'
p5412
g347
tp5413
F0.1
s(S'U17:,/VB'
p5414
g11
tp5415
F-0.1
s(S'U02:outlook'
p5416
g11
tp5417
F-0.1
s(S'U16:RB/RB'
p5418
g96
tp5419
F0.1
s(S'U21:NNPS/CC/NNP'
p5420
g415
tp5421
F0.1
s(g4103
g11
tp5422
F-0.1
s(S'U22:VBD/EX/VBZ'
p5423
g11
tp5424
F-0.1
s(S'U05:support/for'
p5425
g11
tp5426
F-0.1
s(S'U20:DT/#/CD'
p5427
g11
tp5428
F-0.3
s(g2444
g1211
tp5429
F0.2
s(g5077
g11
tp5430
F-0.1
s(g1823
g4787
tp5431
F0.1
s(g157
g272
tp5432
F0.2
s(S'U20:NNP/CD/.'
p5433
g11
tp5434
F-0.1
s(S'U06:capital/goods'
p5435
g11
tp5436
F-0.1
s(S'U01:has'
p5437
g328
tp5438
F0.3
s(S'U20:IN/NNP/VBP'
p5439
g11
tp5440
F-0.1
s(g4293
g11
tp5441
F-1.0
s(g1210
g11
tp5442
F-0.2
s(S'U16:NNS/NNS'
p5443
g11
tp5444
F-0.1
s(g3022
g2652
tp5445
F0.2
s(g2742
g30
tp5446
F0.1
s(g3378
g11
tp5447
F-0.1
s(S'U03:the'
p5448
g11
tp5449
F-1.6
s(S'U21:NN/VBG/VBN'
p5450
g632
tp5451
F0.1
s(g3108
g11
tp5452
F-0.1
s(g4558
g11
tp5453
F-0.1
s(g2495
g1133
tp5454
F0.1
s(g2755
g3616
tp5455
F0.1
s(g4897
g2405
tp5456
F0.1
s(S'U05:eroded/by'
p5457
g2052
tp5458
F0.1
s(g3744
g11
tp5459
F-0.1
s(S'U02:Research'
p5460
g11
tp5461
F-0.1
s(g4253
g1534
tp5462
F0.2
s(S'U20:VB/NNS/.'
p5463
g74
tp5464
F0.1
s(S'U20:NN/VBZ/VBG'
p5465
g11
tp5466
F-0.1
s(g253
g1513
tp5467
F0.1
s(g4267
g74
tp5468
F0.1
s(g2810
g289
tp5469
F0.5
s(S'U22:,/JJ/NNP'
p5470
g74
tp5471
F0.1
s(S'U00:pound'
p5472
g33
tp5473
F0.1
s(g3142
g1591
tp5474
F0.1
s(S'U17:NNP/.'
p5475
g2252
tp5476
F0.3
s(S'U06:deficit/and'
p5477
g11
tp5478
F-0.1
s(g2336
g11
tp5479
F-1.4
s(S'U18:DT/NN'
p5480
g169
tp5481
F0.6
s(g5103
g74
tp5482
F0.1
s(g704
g88
tp5483
F0.1
s(S'U03:another'
p5484
g19
tp5485
F0.1
s(g3373
g11
tp5486
F-0.1
s(S'U05:any/new'
p5487
g11
tp5488
F-0.1
s(g4383
g11
tp5489
F-0.1
s(g3189
g785
tp5490
F0.1
s(S'U03:senior'
p5491
g74
tp5492
F0.1
s(S'U18:NN/IN'
p5493
g5
tp5494
F0.2
s(g4660
g11
tp5495
F-0.2
s(g1452
g11
tp5496
F-0.1
s(S'U14:EX'
p5497
g11
tp5498
F-0.3
s(g116
g82
tp5499
F0.1
s(S'U12:DTq'
p5500
g74
tp5501
F0.1
s(S'U20:JJ/NN/VBD'
p5502
g11
tp5503
F-0.1
s(g3989
g11
tp5504
F-0.1
s(g483
g74
tp5505
F0.2
s(g2717
g74
tp5506
F0.2
s(S'U12:VBGq'
p5507
g11
tp5508
F-0.2
s(g1128
g1058
tp5509
F0.1
s(g4211
g11
tp5510
F-0.1
s(g4403
g694
tp5511
F0.1
s(g3589
g676
tp5512
F0.1
s(S'U05:economist/at'
p5513
g11
tp5514
F-0.2
s(S'U03:continued'
p5515
g11
tp5516
F-0.1
s(g4026
g879
tp5517
F0.6
s(g3475
g69
tp5518
F0.1
s(g5368
g458
tp5519
F0.1
s(g1949
g1194
tp5520
F0.1
s(S'U14:#'
p5521
g74
tp5522
F0.1
s(S'U01:figures'
p5523
g1015
tp5524
F0.1
s(S'U00:for'
p5525
g1548
tp5526
F0.1
s(g4061
g11
tp5527
F-0.2
s(S'U11:NNP'
p5528
g30
tp5529
F1.7
s(g2679
g74
tp5530
F0.1
s(g713
g11
tp5531
F-0.1
s(S'U15:POS/NN'
p5532
g1769
tp5533
F0.1
s(g4852
g11
tp5534
F-0.3
s(g364
g85
tp5535
F0.1
s(g753
g3636
tp5536
F0.1
s(S'U22:,/VBN/VBD'
p5537
g11
tp5538
F-0.1
s(S'U03:very'
p5539
g785
tp5540
F0.1
s(S'U00:sharp'
p5541
g11
tp5542
F-0.1
s(S'U01:very'
p5543
g3636
tp5544
F0.1
s(g1423
g11
tp5545
F-0.1
s(S'U15:_B-1/``'
p5546
g845
tp5547
F0.1
s(g3469
g11
tp5548
F-0.1
s(g4700
g11
tp5549
F-0.2
s(g2569
g11
tp5550
F-0.1
s(S'U00:_B-1'
p5551
g845
tp5552
F0.1
s(g5132
g11
tp5553
F-0.1
s(g4947
g11
tp5554
F-0.1
s(g4039
g3616
tp5555
F0.1
s(S'U20:TO/DT/NN'
p5556
g11
tp5557
F-0.1
s(S'U15:JJ/NN'
p5558
g959
tp5559
F0.5
s(g426
g1304
tp5560
F0.1
s(g1431
g11
tp5561
F-0.1
s(g3376
g230
tp5562
F0.1
s(g1778
g1708
tp5563
F0.1
s(S'U17:NNP/POS'
p5564
g30
tp5565
F0.2
s(S'U20:PRP/TO/VB'
p5566
g160
tp5567
F0.1
s(g4096
g11
tp5568
F-0.1
s(g2353
g11
tp5569
F-0.1
s(g2329
g11
tp5570
F-0.1
s(S'U03:dive'
p5571
g11
tp5572
F-0.1
s(g2030
g247
tp5573
F0.1
s(g4075
g74
tp5574
F0.1
s(g3840
g785
tp5575
F0.4
s(g2199
g181
tp5576
F0.2
s(S'U04:capital'
p5577
g11
tp5578
F-0.1
s(g3025
g1012
tp5579
F0.2
s(S'U04:and'
p5580
g511
tp5581
F0.2
s(g1642
g11
tp5582
F-0.1
s(S'U21:NN/NN/NNS'
p5583
g959
tp5584
F0.1
s(g4864
g42
tp5585
F0.1
s(g4902
g11
tp5586
F-0.1
s(g3814
g11
tp5587
F-0.1
s(S'U02:topped'
p5588
g11
tp5589
F-0.1
s(g2173
g11
tp5590
F-1.9
s(S'U10:JJ'
p5591
g1457
tp5592
F0.3
s(S'U18:PRP$/NNP'
p5593
g3229
tp5594
F0.1
s(S'U03:measures'
p5595
g11
tp5596
F-0.1
s(S'U02:2.2'
p5597
g93
tp5598
F0.1
s(g4071
g11
tp5599
F-0.1
s(S'U13:TO'
p5600
g294
tp5601
F0.5
s(g4986
g101
tp5602
F0.1
s(g4352
g11
tp5603
F-0.1
s(g3620
g11
tp5604
F-0.1
s(g5541
g1061
tp5605
F0.1
s(g2314
g74
tp5606
F0.1
s(g5443
g424
tp5607
F0.1
s(g2692
g294
tp5608
F0.1
s(S'U14:NNP'
p5609
g74
tp5610
F0.3
s(g87
g11
tp5611
F-0.3
s(S'U06:,/fail'
p5612
g11
tp5613
F-0.1
s(g3083
g307
tp5614
F0.1
s(g4067
g11
tp5615
F-0.1
s(g2998
g11
tp5616
F-0.3
s(g168
g11
tp5617
F-1.0
s(g2284
g11
tp5618
F-0.1
s(S'U17:VBN/DT'
p5619
g1708
tp5620
F0.1
s(S'U15:JJ/NN'
p5621
g74
tp5622
F0.3
s(S'U04:trade'
p5623
g431
tp5624
F0.1
s(g3749
g928
tp5625
F0.2
s(g2874
g74
tp5626
F0.1
s(g5073
g11
tp5627
F-0.1
s(S'U02:widely'
p5628
g11
tp5629
F-0.2
s(S'U03:.'
p5630
g152
tp5631
F0.7
s(S'U13:IN'
p5632
g1122
tp5633
F0.1
s(S'U21:DT/NNP/NN'
p5634
g511
tp5635
F0.1
s(g5194
g11
tp5636
F-0.1
s(g5320
g649
tp5637
F0.1
s(g3219
g11
tp5638
F-0.1
s(S'U06:3.2/billion'
p5639
g11
tp5640
F-0.1
s(g1409
g11
tp5641
F-0.5
s(g1442
g11
tp5642
F-0.1
s(S'U00:#'
p5643
g339
tp5644
F0.2
s(g2541
g11
tp5645
F-0.1
s(S'U04:inflows'
p5646
g11
tp5647
F-0.1
s(g3618
g33
tp5648
F0.1
s(g902
g11
tp5649
F-0.1
s(g2751
g22
tp5650
F0.1
s(g4142
g11
tp5651
F-0.1
s(S'U01:side'
p5652
g74
tp5653
F0.1
s(S'U15:VBZ/RB'
p5654
g347
tp5655
F0.1
s(S'U01:1988'
p5656
g11
tp5657
F-0.1
s(g191
g11
tp5658
F-1.0
s(g4265
g11
tp5659
F-0.1
s(S'U01:foreign'
p5660
g463
tp5661
F0.1
s(g4573
g879
tp5662
F0.2
s(S'U05:underlying/support'
p5663
g11
tp5664
F-0.1
s(g2615
g1394
tp5665
F0.1
s(S'U22:#/CD/CD'
p5666
g1331
tp5667
F0.2
s(g958
g11
tp5668
F-0.1
s(g1746
g2297
tp5669
F0.1
s(S'U18:DT/JJ'
p5670
g101
tp5671
F0.4
s(g5289
g11
tp5672
F-0.1
s(S'U04:-LRB-'
p5673
g74
tp5674
F0.1
s(g4162
g74
tp5675
F0.4
s(g2251
g11
tp5676
F-0.3
s(g2319
g11
tp5677
F-0.1
s(g261
g496
tp5678
F0.1
s(g1729
g11
tp5679
F-0.7
s(g3934
g632
tp5680
F0.1
s(g3099
g88
tp5681
F0.1
s(S'U00:release'
p5682
g74
tp5683
F0.1
s(g249
g178
tp5684
F0.1
s(S'U18:VBN/VBN'
p5685
g11
tp5686
F-0.1
s(g2892
g74
tp5687
F0.1
s(S'U22:NNP/NNP/NNP'
p5688
g11
tp5689
F-0.1
s(g2581
g11
tp5690
F-0.1
s(g5465
g933
tp5691
F0.1
s(g4178
g11
tp5692
F-0.2
s(g1725
g11
tp5693
F-0.1
s(S'U01:due'
p5694
g11
tp5695
F-0.1
s(S'U02:widely'
p5696
g33
tp5697
F0.1
s(g3276
g11
tp5698
F-0.1
s(g1861
g74
tp5699
F0.1
s(g2992
g11
tp5700
F-0.1
s(g4146
g11
tp5701
F-0.2
s(g2672
g916
tp5702
F0.1
s(S'U21:JJ/NN/VBD'
p5703
g11
tp5704
F-0.1
s(g5480
g11
tp5705
F-1.1
s(S'U05:August/deficit'
p5706
g342
tp5707
F0.1
s(S'U15:,/JJ'
p5708
g436
tp5709
F0.1
s(g1566
g898
tp5710
F0.1
s(S'U01:eroded'
p5711
g2052
tp5712
F0.1
s(g755
g405
tp5713
F0.4
s(g3892
g74
tp5714
F0.1
s(S'U02:market'
p5715
g11
tp5716
F-0.1
s(S'U20:NNP/NN/CC'
p5717
g11
tp5718
F-0.1
s(g3200
g11
tp5719
F-1.0
s(g2249
g11
tp5720
F-0.5
s(S'U02:account'
p5721
g11
tp5722
F-0.1
s(g738
g11
tp5723
F-0.1
s(g3758
g74
tp5724
F0.1
s(g1661
g433
tp5725
F0.1
s(S'U05:Chancellor/of'
p5726
g11
tp5727
F-0.1
s(g5184
g328
tp5728
F0.5
s(g4507
g11
tp5729
F-0.1
s(g2629
g11
tp5730
F-0.1
s(S'U17:NN/IN'
p5731
g394
tp5732
F1.5
s(g2232
g11
tp5733
F-0.1
s(g3040
g108
tp5734
F0.3
s(g586
g272
tp5735
F0.2
s(g1888
g11
tp5736
F-0.1
s(S'U01:billion'
p5737
g74
tp5738
F0.2
s(g2948
g11
tp5739
F-0.7
s(g287
g11
tp5740
F-0.1
s(g2520
g11
tp5741
F-0.3
s(g3495
g11
tp5742
F-0.1
s(S'U21:NN/IN/NNP'
p5743
g225
tp5744
F0.1
s(g5276
g74
tp5745
F0.1
s(g3953
g11
tp5746
F-0.1
s(g3624
g3194
tp5747
F0.1
s(g2676
g11
tp5748
F-0.1
s(g1041
g160
tp5749
F0.1
s(g278
g11
tp5750
F-0.1
s(S'U15:VB/NN'
p5751
g812
tp5752
F0.1
s(S'U16:RB/JJ'
p5753
g347
tp5754
F0.1
s(g4709
g11
tp5755
F-0.1
s(S'U21:VBP/VBN/RB'
p5756
g11
tp5757
F-0.1
s(g3975
g694
tp5758
F0.1
s(S'U12:VBNq'
p5759
g69
tp5760
F0.1
s(g1427
g155
tp5761
F0.2
s(g367
g11
tp5762
F-0.1
s(g3435
g1188
tp5763
F0.1
s(g1191
g11
tp5764
F-0.1
s(S'U14:CD'
p5765
g14
tp5766
F0.1
s(g5139
g11
tp5767
F-0.1
s(g3371
g74
tp5768
F0.1
s(S'U05:to/announce'
p5769
g101
tp5770
F0.1
s(S'U04:economist'
p5771
g74
tp5772
F0.2
s(S'U00:trade'
p5773
g74
tp5774
F0.1
s(g3164
g74
tp5775
F0.1
s(S'U01:are'
p5776
g11
tp5777
F-0.2
s(g467
g1792
tp5778
F0.1
s(S'U00:forced'
p5779
g8
tp5780
F0.1
s(g5405
g11
tp5781
F-0.1
s(g5348
g125
tp5782
F0.1
s(S'U11:#'
p5783
g93
tp5784
F0.2
s(g4795
g125
tp5785
F0.1
s(S'U06:billion/deficit'
p5786
g2354
tp5787
F0.1
s(g3711
g11
tp5788
F-0.3
s(g5539
g11
tp5789
F-0.1
s(g4825
g1394
tp5790
F0.1
s(g2276
g676
tp5791
F0.1
s(g3057
g11
tp5792
F-0.5
s(g4822
g11
tp5793
F-0.7
s(S'U00:Chris'
p5794
g74
tp5795
F0.1
s(g3065
g11
tp5796
F-0.2
s(g613
g8
tp5797
F0.1
s(S'U10:CC'
p5798
g868
tp5799
F0.1
s(S'U00:,'
p5800
g436
tp5801
F0.1
s(g1285
g11
tp5802
F-0.1
s(g2139
g289
tp5803
F0.6
s(g3924
g11
tp5804
F-0.1
s(g2091
g11
tp5805
F-0.2
s(S'U00:last'
p5806
g11
tp5807
F-0.1
s(S'U16:_B-1/CC'
p5808
g74
tp5809
F0.1
s(S'U11:RB'
p5810
g333
tp5811
F0.2
s(S'U10:CD'
p5812
g11
tp5813
F-0.9
s(g559
g82
tp5814
F1.5
s(g2530
g11
tp5815
F-0.1
s(S'U01:risks'
p5816
g11
tp5817
F-0.1
s(g3366
g635
tp5818
F0.1
s(S'U10:VBN'
p5819
g79
tp5820
F0.2
s(S'U01:measures'
p5821
g3229
tp5822
F0.1
s(g388
g74
tp5823
F0.1
s(g1391
g1263
tp5824
F0.3
s(g5329
g11
tp5825
F-0.1
s(g1800
g74
tp5826
F0.1
s(S'U22:NNP/NNP/NN'
p5827
g391
tp5828
F0.1
s(S'U02:forced'
p5829
g1513
tp5830
F0.1
s(g3443
g74
tp5831
F0.1
s(S'U05:only/by'
p5832
g11
tp5833
F-0.1
s(S'U04:July'
p5834
g269
tp5835
F0.1
s(g5322
g436
tp5836
F0.1
s(g2260
g136
tp5837
F0.1
s(g5056
g415
tp5838
F0.1
s(g4434
g3445
tp5839
F0.1
s(g4196
g11
tp5840
F-0.1
s(g3546
g11
tp5841
F-0.1
s(S'U06:remains/fairly'
p5842
g11
tp5843
F-0.1
s(g2497
g11
tp5844
F-0.1
s(g4874
g845
tp5845
F0.1
s(S'U15:NNP/CD'
p5846
g74
tp5847
F0.1
s(g4548
g11
tp5848
F-0.1
s(S'U22:VBG/PRP/TO'
p5849
g933
tp5850
F0.1
s(g551
g1676
tp5851
F0.1
s(g255
g1114
tp5852
F0.1
s(g5414
g74
tp5853
F0.1
s(S'U22:VBN/VBN/IN'
p5854
g1114
tp5855
F0.1
s(S'U18:DT/#'
p5856
g74
tp5857
F0.1
s(g383
g11
tp5858
F-0.1
s(g5786
g11
tp5859
F-0.1
s(g1135
g11
tp5860
F-0.1
s(g3808
g11
tp5861
F-0.1
s(g708
g1485
tp5862
F0.1
s(S'U13:PRP$'
p5863
g987
tp5864
F0.2
s(g4832
g11
tp5865
F-0.1
s(S'U10:DT'
p5866
g5
tp5867
F0.5
s(g3634
g74
tp5868
F0.2
s(S'U00:the'
p5869
g632
tp5870
F0.3
s(S'U06:prevent/a'
p5871
g377
tp5872
F0.1
s(g4235
g11
tp5873
F-0.1
s(g2637
g11
tp5874
F-0.4
s(g5381
g74
tp5875
F0.1
s(g3002
g1693
tp5876
F0.1
s(g3825
g74
tp5877
F0.1
s(S'U22:VBP/VBG/NN'
p5878
g868
tp5879
F0.1
s(S'U00:,'
p5880
g11
tp5881
F-1.1
s(g3298
g762
tp5882
F0.1
s(g1992
g11
tp5883
F-0.3
s(g5532
g11
tp5884
F-0.2
s(g2024
g11
tp5885
F-0.3
s(g2767
g11
tp5886
F-0.1
s(g5317
g74
tp5887
F0.1
s(g3648
g479
tp5888
F0.1
s(S'U04:pound'
p5889
g928
tp5890
F0.1
s(g746
g1015
tp5891
F0.1
s(g5408
g11
tp5892
F-0.1
s(S'U01:pound'
p5893
g599
tp5894
F0.1
s(g607
g11
tp5895
F-0.1
s(g524
g11
tp5896
F-0.1
s(g5470
g11
tp5897
F-0.1
s(g2740
g11
tp5898
F-0.4
s(g5717
g74
tp5899
F0.1
s(S'U02:August'
p5900
g11
tp5901
F-0.2
s(g653
g898
tp5902
F0.1
s(S'U00:is'
p5903
g1540
tp5904
F0.2
s(S'U17:NN/VBP'
p5905
g11
tp5906
F-0.1
s(g4968
g827
tp5907
F0.1
s(g5420
g11
tp5908
F-0.1
s(S'U01:August'
p5909
g11
tp5910
F-0.2
s(S'U05:say/.'
p5911
g74
tp5912
F0.1
s(g4171
g11
tp5913
F-0.3
s(S'U21:CD/./_B+1'
p5914
g74
tp5915
F0.1
s(S'U03:U.K.'
p5916
g74
tp5917
F0.1
s(g3166
g74
tp5918
F0.1
s(g3048
g11
tp5919
F-0.1
s(g5001
g74
tp5920
F0.1
s(g673
g1457
tp5921
F0.1
s(S'U13:PRP'
p5922
g74
tp5923
F0.1
s(S'U03:no'
p5924
g155
tp5925
F0.1
s(S'U12:$q'
p5926
g11
tp5927
F-0.1
s(S'U17:,/VBD'
p5928
g11
tp5929
F-0.1
s(S'U11:$'
p5930
g74
tp5931
F0.1
s(g1853
g11
tp5932
F-0.1
s(S'U03:$'
p5933
g74
tp5934
F0.1
s(g5463
g11
tp5935
F-0.1
s(g4016
g328
tp5936
F0.3
s(g5583
g11
tp5937
F-0.1
s(g759
g11
tp5938
F-0.1
s(g5832
g2715
tp5939
F0.1
s(g59
g133
tp5940
F0.1
s(g4192
g581
tp5941
F0.1
s(g838
g141
tp5942
F0.1
s(g5889
g11
tp5943
F-0.2
s(g927
g11
tp5944
F-0.2
s(g4221
g11
tp5945
F-0.1
s(g5305
g11
tp5946
F-0.1
s(S'U20:VBN/DT/NN'
p5947
g11
tp5948
F-0.1
s(S'U21:JJ/NNS/.'
p5949
g11
tp5950
F-0.1
s(g3169
g1007
tp5951
F0.2
s(S'U11:VBP'
p5952
g128
tp5953
F0.1
s(S'U00:firm'
p5954
g108
tp5955
F0.1
s(g16
g1548
tp5956
F0.1
s(S'U18:CD/NN'
p5957
g172
tp5958
F0.3
s(g1233
g11
tp5959
F-0.2
s(S'U12:VBNq'
p5960
g328
tp5961
F0.7
s(g5924
g11
tp5962
F-0.1
s(S'U02:week'
p5963
g152
tp5964
F0.1
s(g1446
g47
tp5965
F0.1
s(S'U22:NNS/IN/PRP$'
p5966
g1238
tp5967
F0.1
s(g3242
g74
tp5968
F0.1
s(g3091
g11
tp5969
F-0.1
s(g5537
g74
tp5970
F0.1
s(g598
g11
tp5971
F-0.1
s(g358
g11
tp5972
F-0.1
s(g3317
g74
tp5973
F0.1
s(g5111
g1015
tp5974
F0.1
s(S'U11:RB'
p5975
g96
tp5976
F0.1
s(g2368
g11
tp5977
F-0.1
s(S'U06:Joshi/,'
p5978
g11
tp5979
F-0.1
s(S'U22:NNS/./_B+1'
p5980
g11
tp5981
F-0.2
s(g4879
g11
tp5982
F-0.1
s(g3950
g11
tp5983
F-0.1
s(g2338
g74
tp5984
F0.4
s(g5273
g1194
tp5985
F0.1
s(g1537
g74
tp5986
F0.1
s(S'U06:,/he'
p5987
g11
tp5988
F-0.1
s(g3120
g74
tp5989
F0.1
s(S'U05:few/economists'
p5990
g11
tp5991
F-0.1
s(S'U16:DT/#'
p5992
g1331
tp5993
F0.2
s(g2709
g11
tp5994
F-0.1
s(g314
g394
tp5995
F0.4
s(g3626
g11
tp5996
F-0.1
s(g3597
g2252
tp5997
F0.1
s(S'U04:%'
p5998
g172
tp5999
F0.1
s(g2171
g11
tp6000
F-0.1
s(S'U04:are'
p6001
g2297
tp6002
F0.1
s(g5346
g2652
tp6003
F0.1
s(S'U17:)/NN'
p6004
g74
tp6005
F0.1
s(g4719
g11
tp6006
F-0.1
s(S"U11:''"
p6007
g11
tp6008
F-0.2
s(S'U01:figure'
p6009
g785
tp6010
F0.1
s(S'U04:reckon'
p6011
g11
tp6012
F-0.1
s(g51
g74
tp6013
F1.0
s(g3854
g11
tp6014
F-0.1
s(g3314
g11
tp6015
F-0.3
s(g1206
g336
tp6016
F0.2
s(g1552
g11
tp6017
F-0.2
s(g5630
g11
tp6018
F-0.8
s(S'U22:VBZ/VBN/VBN'
p6019
g11
tp6020
F-0.1
s(g5947
g79
tp6021
F0.1
s(S'U15:NN/VBN'
p6022
g2297
tp6023
F0.1
s(g2571
g11
tp6024
F-0.1
s(S'U05:consumer/and'
p6025
g11
tp6026
F-0.1
s(g2209
g74
tp6027
F0.1
s(g5515
g69
tp6028
F0.1
s(g2769
g1061
tp6029
F0.1
s(S'B:O'
p6030
g1502
tp6031
F0.4
s(S'U15:_B-1/DT'
p6032
g511
tp6033
F0.1
s(S'U00:the'
p6034
g2863
tp6035
F0.2
s(g1215
g3636
tp6036
F0.1
s(g2103
g269
tp6037
F0.1
s(S'U15:NNPS/CC'
p6038
g1133
tp6039
F0.1
s(g4819
g11
tp6040
F-0.8
s(g2764
g1576
tp6041
F0.1
s(g4344
g82
tp6042
F0.1
s(g4331
g11
tp6043
F-0.1
s(g1590
g11
tp6044
F-0.1
s(g1289
g11
tp6045
F-0.1
s(g1179
g1202
tp6046
F0.1
s(g3136
g11
tp6047
F-0.1
s(g5261
g11
tp6048
F-0.1
s(g3830
g11
tp6049
F-0.1
s(g3872
g11
tp6050
F-0.1
s(S'U18:,/PRP'
p6051
g3173
tp6052
F0.1
s(S'U14:.'
p6053
g1688
tp6054
F0.1
s(g5220
g11
tp6055
F-0.1
s(S'U10:NNP'
p6056
g128
tp6057
F0.1
s(g4130
g11
tp6058
F-0.1
s(g2736
g1157
tp6059
F0.4
s(g2662
g11
tp6060
F-0.1
s(g4576
g2297
tp6061
F0.1
s(S'U22:IN/NN/VBZ'
p6062
g11
tp6063
F-0.1
s(S'U20:NN/NN/VBP'
p6064
g785
tp6065
F0.1
s(g1916
g907
tp6066
F0.4
s(g4368
g108
tp6067
F1.9
s(g611
g11
tp6068
F-0.5
s(S'U21:POS/NN/NN'
p6069
g2865
tp6070
F0.1
s(S'U18:NN/NNS'
p6071
g1061
tp6072
F0.1
s(g5101
g1133
tp6073
F0.1
s(g820
g458
tp6074
F0.1
s(g2068
g11
tp6075
F-0.2
s(S'U06:Dillow/,'
p6076
g11
tp6077
F-0.1
s(S'U00:topped'
p6078
g11
tp6079
F-0.1
s(S'U10:VBG'
p6080
g181
tp6081
F0.1
s(g1280
g11
tp6082
F-0.1
s(g3418
g11
tp6083
F-0.1
s(g5398
g11
tp6084
F-0.4
s(g4868
g339
tp6085
F0.1
s(g2595
g1733
tp6086
F0.2
s(g2070
g1157
tp6087
F0.1
s(S'U15:DT/#'
p6088
g93
tp6089
F0.2
s(S'U20:NNP/NN/IN'
p6090
g1058
tp6091
F0.2
s(g5457
g11
tp6092
F-0.1
s(g1638
g11
tp6093
F-0.1
s(g4917
g74
tp6094
F0.1
s(g5487
g907
tp6095
F0.1
s(g764
g74
tp6096
F0.1
s(g1067
g64
tp6097
F0.1
s(g4260
g11
tp6098
F-0.1
s(S'U22:VBD/NNP/NNP'
p6099
g1502
tp6100
F0.2
s(S'U01:improvement'
p6101
g1211
tp6102
F0.2
s(g5263
g4787
tp6103
F0.1
s(g2325
g3173
tp6104
F0.1
s(g4835
g516
tp6105
F0.1
s(g3387
g11
tp6106
F-0.2
s(g5694
g436
tp6107
F0.1
s(S'U03:show'
p6108
g711
tp6109
F0.1
s(g5682
g11
tp6110
F-0.1
s(S'U01:he'
p6111
g1243
tp6112
F0.1
s(g5460
g25
tp6113
F0.1
s(S'U01:Bank'
p6114
g11
tp6115
F-0.1
s(g2564
g11
tp6116
F-0.1
s(g3779
g74
tp6117
F0.1
s(g1385
g916
tp6118
F0.1
s(S'U05:#/2'
p6119
g74
tp6120
F0.1
s(g6111
g11
tp6121
F-0.1
s(S'U04:there'
p6122
g279
tp6123
F0.1
s(g4363
g11
tp6124
F-0.1
s(S'U00:a'
p6125
g5
tp6126
F0.2
s(g1798
g11
tp6127
F-0.4
s(S'U15:VB/TO'
p6128
g11
tp6129
F-0.1
s(g2187
g213
tp6130
F0.1
s(g2534
g3636
tp6131
F0.2
s(g4504
g11
tp6132
F-0.1
s(g103
g11
tp6133
F-1.3
s(g3018
g11
tp6134
F-0.1
s(g1091
g974
tp6135
F0.1
s(g3972
g11
tp6136
F-0.3
s(g1089
g1705
tp6137
F0.1
s(g3449
g1188
tp6138
F0.1
s(S'U16:CD/NN'
p6139
g11
tp6140
F-0.4
s(S'U06:2.3/billion'
p6141
g5359
tp6142
F0.1
s(S'U06:for/the'
p6143
g11
tp6144
F-0.1
s(S'U16:POS/NN'
p6145
g11
tp6146
F-0.2
s(g3125
g85
tp6147
F0.1
s(g6025
g175
tp6148
F0.1
s(S'U22:TO/VB/NNS'
p6149
g11
tp6150
F-0.1
s(g1507
g11
tp6151
F-0.1
s(g1634
g11
tp6152
F-0.2
s(S'U17:IN/DT'
p6153
g697
tp6154
F1.3
s(S'U17:JJ/NNS'
p6155
g11
tp6156
F-0.1
s(g4798
g11
tp6157
F-0.1
s(S'U22:JJ/NN/,'
p6158
g11
tp6159
F-0.2
s(S'U17:NN/VBD'
p6160
g11
tp6161
F-0.1
s(g4776
g11
tp6162
F-0.1
s(S'U04:Britain'
p6163
g1540
tp6164
F0.1
s(S'U10:DT'
p6165
g74
tp6166
F0.2
s(g4194
g377
tp6167
F0.2
s(S'U06:to/announce'
p6168
g1769
tp6169
F0.1
s(g419
g74
tp6170
F0.1
s(S'U00:Simon'
p6171
g11
tp6172
F-0.1
s(g5513
g1058
tp6173
F0.2
s(g281
g74
tp6174
F0.1
s(g2853
g11
tp6175
F-0.1
s(g5160
g405
tp6176
F0.1
s(g2579
g11
tp6177
F-0.2
s(S'B:B-VP'
p6178
g1688
tp6179
F0.2
s(S'U16:EX/VBZ'
p6180
g155
tp6181
F0.2
s(g5019
g11
tp6182
F-0.1
s(S'U05:_B-1/But'
p6183
g74
tp6184
F0.1
s(g2105
g11
tp6185
F-0.1
s(g1140
g11
tp6186
F-0.1
s(g5975
g11
tp6187
F-0.7
s(g3202
g11
tp6188
F-0.1
s(S'U00:the'
p6189
g74
tp6190
F0.2
s(g5726
g697
tp6191
F0.1
s(g3281
g82
tp6192
F0.1
s(S'U03:last'
p6193
g1136
tp6194
F0.1
s(S'U00:monetary'
p6195
g11
tp6196
F-0.1
s(g5059
g11
tp6197
F-0.1
s(g5230
g11
tp6198
F-0.2
s(g3679
g79
tp6199
F0.2
s(g2381
g11
tp6200
F-0.1
s(g3487
g1238
tp6201
F0.1
s(S'U12:VBNq'
p6202
g269
tp6203
F0.1
s(S'U18:DT/RB'
p6204
g11
tp6205
F-0.1
s(g4635
g11
tp6206
F-0.1
s(g6004
g11
tp6207
F-0.1
s(S'U03:the'
p6208
g676
tp6209
F0.1
s(g6090
g11
tp6210
F-0.2
s(g3245
g11
tp6211
F-0.2
s(g1944
g136
tp6212
F0.1
s(g3231
g11
tp6213
F-0.1
s(g920
g11
tp6214
F-0.1
s(g1683
g1548
tp6215
F0.1
s(S'U20:,/JJ/NN'
p6216
g11
tp6217
F-0.1
s(g2063
g11
tp6218
F-0.2
s(g1043
g11
tp6219
F-0.1
s(g3696
g11
tp6220
F-0.1
s(S'U15:NN/VBD'
p6221
g11
tp6222
F-0.1
s(S'U12:CDq'
p6223
g74
tp6224
F0.4
s(S'U03:consumer'
p6225
g1693
tp6226
F0.1
s(g39
g2863
tp6227
F0.1
s(g1690
g691
tp6228
F0.1
s(g2112
g11
tp6229
F-0.1
s(g3112
g2019
tp6230
F0.3
s(g563
g74
tp6231
F0.2
s(S'U03:a'
p6232
g74
tp6233
F0.1
s(S'U20:NN/VBP/RB'
p6234
g133
tp6235
F0.1
s(S'U01:gap'
p6236
g11
tp6237
F-0.1
s(S'U12:JJq'
p6238
g1122
tp6239
F0.1
s(g4411
g11
tp6240
F-0.1
s(g4847
g11
tp6241
F-0.1
s(g1512
g11
tp6242
F-0.1
s(S'U13:VBD'
p6243
g516
tp6244
F0.1
s(g954
g74
tp6245
F0.1
s(S'U06:widely/expected'
p6246
g33
tp6247
F0.1
s(g5808
g11
tp6248
F-0.1
s(g1571
g74
tp6249
F0.1
s(g3205
g11
tp6250
F-0.1
s(S'U04:has'
p6251
g470
tp6252
F0.1
s(S'U04:.'
p6253
g160
tp6254
F0.1
s(S'U05:deficit/and'
p6255
g11
tp6256
F-0.1
s(g3653
g11
tp6257
F-0.1
s(g5588
g128
tp6258
F0.1
s(S'U18:NN/TO'
p6259
g1007
tp6260
F0.2
s(g4866
g11
tp6261
F-1.0
s(g3274
g11
tp6262
F-0.1
s(g4744
g11
tp6263
F-0.1
s(S'U15:RB/JJ'
p6264
g11
tp6265
F-0.1
s(g2286
g11
tp6266
F-0.1
s(S'U01:European'
p6267
g11
tp6268
F-0.1
s(g1737
g415
tp6269
F0.1
s(S'U11:DT'
p6270
g74
tp6271
F0.1
s(S'U20:VBG/PRP/TO'
p6272
g181
tp6273
F0.1
s(S'U10:_B-2'
p6274
g11
tp6275
F-0.5
s(S'U18:CD/CD'
p6276
g14
tp6277
F0.1
s(S'U03:policy'
p6278
g47
tp6279
F0.2
s(S'U20:CD/NN/VBN'
p6280
g269
tp6281
F0.1
s(g1977
g74
tp6282
F0.1
s(g5673
g11
tp6283
F-0.1
s(g3074
g14
tp6284
F0.1
s(S'U01:2'
p6285
g11
tp6286
F-0.1
s(g5493
g11
tp6287
F-0.9
s(g2856
g11
tp6288
F-0.3
s(S'U00:trade'
p6289
g785
tp6290
F0.2
s(g3258
g424
tp6291
F0.1
s(S'B:B-ADVP'
p6292
g96
tp6293
F0.1
s(S'U22:VBZ/VBG/PRP'
p6294
g1591
tp6295
F0.1
s(g4320
g11
tp6296
F-0.1
s(S'U22:NNP/,/DT'
p6297
g336
tp6298
F0.1
s(g5703
g516
tp6299
F0.1
s(g3599
g11
tp6300
F-0.1
s(g976
g2252
tp6301
F0.1
s(S'U15:PRP/TO'
p6302
g11
tp6303
F-0.1
s(S'U22:VB/DT/RB'
p6304
g1851
tp6305
F0.1
s(g2349
g868
tp6306
F0.1
s(g5769
g11
tp6307
F-0.1
s(S"U16:''/VBD"
p6308
g11
tp6309
F-0.2
s(g2635
g69
tp6310
F0.1
s(g3530
g1304
tp6311
F0.1
s(g246
g11
tp6312
F-0.1
s(g5477
g342
tp6313
F0.1
s(g4202
g356
tp6314
F0.1
s(S'U05:the/outlook'
p6315
g11
tp6316
F-0.1
s(g840
g11
tp6317
F-0.1
s(g1319
g2123
tp6318
F0.1
s(g118
g74
tp6319
F0.1
s(g4244
g11
tp6320
F-0.1
s(g5987
g74
tp6321
F0.1
s(g2962
g1733
tp6322
F0.1
s(g5911
g11
tp6323
F-0.1
s(S'U01:remains'
p6324
g496
tp6325
F0.1
s(g5236
g11
tp6326
F-0.1
s(g4482
g350
tp6327
F0.1
s(g1399
g11
tp6328
F-0.1
s(g2719
g74
tp6329
F0.1
s(S'U20:CD/CD/('
p6330
g11
tp6331
F-0.1
s(g5164
g11
tp6332
F-0.1
s(g2844
g1733
tp6333
F0.1
s(S'U00:$'
p6334
g74
tp6335
F0.1
s(S'U18:CD/CD'
p6336
g11
tp6337
F-0.4
s(g2156
g2652
tp6338
F0.1
s(g2796
g11
tp6339
F-1.0
s(g4740
g11
tp6340
F-0.1
s(g3728
g11
tp6341
F-0.1
s(g6204
g1851
tp6342
F0.1
s(g623
g2126
tp6343
F0.1
s(S'U22:JJ/IN/NN'
p6344
g1122
tp6345
F0.1
s(g6225
g11
tp6346
F-0.1
s(g3467
g11
tp6347
F-0.1
s(g147
g47
tp6348
F0.1
s(g183
g74
tp6349
F0.2
s(g4778
g11
tp6350
F-0.1
s(g5656
g74
tp6351
F0.1
s(g3702
g74
tp6352
F0.2
s(g4440
g632
tp6353
F0.1
s(S'U06:are/very'
p6354
g11
tp6355
F-0.1
s(g5310
g11
tp6356
F-0.3
s(g5497
g74
tp6357
F0.2
s(g3771
g1122
tp6358
F0.1
s(g1081
g11
tp6359
F-0.1
s(g4024
g11
tp6360
F-0.1
s(g5954
g11
tp6361
F-0.1
s(g3734
g990
tp6362
F0.1
s(g1953
g581
tp6363
F0.1
s(S'U15:JJ/NNP'
p6364
g74
tp6365
F0.1
s(S'U01:and'
p6366
g11
tp6367
F-0.2
s(S'U21:NN/,/PRP'
p6368
g74
tp6369
F0.1
s(g4723
g11
tp6370
F-0.1
s(g3816
g974
tp6371
F0.1
s(S'U18:VBG/NN'
p6372
g11
tp6373
F-0.1
s(g2937
g11
tp6374
F-0.3
s(g2551
g879
tp6375
F0.1
s(g122
g3194
tp6376
F0.1
s(g3207
g11
tp6377
F-0.1
s(g1787
g967
tp6378
F0.1
s(S'U03:given'
p6379
g74
tp6380
F0.1
s(S'B:B-ADJP'
p6381
g347
tp6382
F0.1
s(g2345
g11
tp6383
F-0.2
s(S'U17:RB/VBN'
p6384
g11
tp6385
F-0.2
s(g5600
g11
tp6386
F-0.9
s(S'U18:$/CD'
p6387
g74
tp6388
F0.1
s(S'U02:billion'
p6389
g74
tp6390
F0.2
s(g6064
g11
tp6391
F-0.1
s(g5416
g230
tp6392
F0.1
s(S'U20:IN/NNP/,'
p6393
g11
tp6394
F-0.1
s(g1181
g11
tp6395
F-0.1
s(g2528
g11
tp6396
F-0.1
s(g1433
g11
tp6397
F-0.1
s(g3198
g845
tp6398
F0.1
s(g259
g807
tp6399
F0.1
s(S'U05:senior/U.K.'
p6400
g11
tp6401
F-0.1
s(g4084
g11
tp6402
F-0.1
s(S'U06:expect/the'
p6403
g676
tp6404
F0.1
s(g1497
g11
tp6405
F-0.1
s(S'U05:pessimistic/about'
p6406
g11
tp6407
F-0.1
s(g5900
g266
tp6408
F0.2
s(g4099
g11
tp6409
F-0.1
s(g3583
g74
tp6410
F0.1
s(g453
g11
tp6411
F-0.1
s(S'U20:VBN/VBD/JJ'
p6412
g1693
tp6413
F0.1
s(S'U05:fairly/pessimistic'
p6414
g347
tp6415
F0.1
s(g3077
g11
tp6416
F-0.1
s(g3308
g907
tp6417
F0.1
s(g1714
g2270
tp6418
F0.1
s(S'U21:NN/NN/,'
p6419
g11
tp6420
F-0.1
s(S'U06:said/Chris'
p6421
g11
tp6422
F-0.1
s(S'U22:VBZ/RB/JJ'
p6423
g1243
tp6424
F0.1
s(S'U05:2.2/billion'
p6425
g11
tp6426
F-0.1
s(S'U05:European/economist'
p6427
g11
tp6428
F-0.1
s(g3401
g1693
tp6429
F0.1
s(S'U04:of'
p6430
g2354
tp6431
F0.2
s(g6421
g1502
tp6432
F0.1
s(S'U11:NN'
p6433
g1061
tp6434
F0.2
s(g6336
g74
tp6435
F0.1
s(g1588
g11
tp6436
F-0.1
s(g5174
g11
tp6437
F-0.1
s(S'U18:JJ/IN'
p6438
g496
tp6439
F0.1
s(g3946
g74
tp6440
F0.1
s(g6078
g2715
tp6441
F0.1
s(g4924
g11
tp6442
F-0.1
s(g6294
g11
tp6443
F-0.1
s(g4941
g11
tp6444
F-0.1
s(g5371
g11
tp6445
F-0.1
s(g4086
g1012
tp6446
F0.1
s(g3700
g1012
tp6447
F0.1
s(S'U01:Joshi'
p6448
g74
tp6449
F0.1
s(S'U21:NNP/,/NNP'
p6450
g11
tp6451
F-0.1
s(g1367
g328
tp6452
F0.2
s(g1272
g694
tp6453
F0.1
s(S'U04:pressure'
p6454
g11
tp6455
F-0.1
s(g1665
g11
tp6456
F-0.1
s(g659
g496
tp6457
F0.1
s(g2977
g11
tp6458
F-0.1
s(g1197
g3497
tp6459
F0.1
s(S'U20:NNP/VBP/VBN'
p6460
g11
tp6461
F-0.1
s(g943
g11
tp6462
F-0.1
s(g1539
g11
tp6463
F-0.1
s(g5044
g11
tp6464
F-0.1
s(g5905
g649
tp6465
F0.1
s(S'B:O'
p6466
g845
tp6467
F0.1
s(g2002
g1141
tp6468
F0.1
s(g1365
g96
tp6469
F0.1
s(S'U04:to'
p6470
g74
tp6471
F0.1
s(g5023
g11
tp6472
F-0.1
s(S'U12:VBGq'
p6473
g933
tp6474
F0.1
s(S'U15:JJ/NNP'
p6475
g854
tp6476
F0.1
s(g5597
g11
tp6477
F-0.1
s(g3517
g11
tp6478
F-0.1
s(S'U20:NN/JJ/NNP'
p6479
g11
tp6480
F-0.1
s(g215
g11
tp6481
F-0.1
s(S'U01:continued'
p6482
g1693
tp6483
F0.1
s(g4771
g3194
tp6484
F0.1
s(S'U18:,/NNP'
p6485
g967
tp6486
F0.1
s(g6139
g1733
tp6487
F0.4
s(S'U04:at'
p6488
g11
tp6489
F-0.1
s(S'U18:POS/NN'
p6490
g1141
tp6491
F0.1
s(g1562
g11
tp6492
F-0.1
s(S'U05:being/forced'
p6493
g11
tp6494
F-0.1
s(g956
g225
tp6495
F0.1
s(S'U01:exchange'
p6496
g959
tp6497
F0.1
s(g4735
g5078
tp6498
F0.1
s(g4105
g11
tp6499
F-0.1
s(S'U22:IN/NN/,'
p6500
g1304
tp6501
F0.1
s(S'U18:VBN/DT'
p6502
g85
tp6503
F0.1
s(g881
g11
tp6504
F-0.1
s(g4564
g697
tp6505
F0.1
s(S'U02:industry'
p6506
g749
tp6507
F0.1
s(g5646
g974
tp6508
F0.1
s(g5854
g11
tp6509
F-0.1
s(g5564
g11
tp6510
F-0.2
s(g2682
g1457
tp6511
F0.1
s(g1542
g2019
tp6512
F0.2
s(S"U06:''/said"
p6513
g11
tp6514
F-0.1
s(g2204
g347
tp6515
F0.1
s(g5095
g898
tp6516
F0.1
s(S'U22:NN/VBZ/RB'
p6517
g11
tp6518
F-0.1
s(g5437
g11
tp6519
F-0.3
s(g6315
g230
tp6520
F0.1
s(S'U06:to/show'
p6521
g711
tp6522
F0.1
s(g2373
g74
tp6523
F0.1
s(g5821
g11
tp6524
F-0.1
s(g4011
g11
tp6525
F-0.1
s(g4007
g827
tp6526
F0.1
s(g5685
g1548
tp6527
F0.1
s(S'U00:in'
p6528
g141
tp6529
F0.3
s(g27
g807
tp6530
F0.1
s(g816
g11
tp6531
F-0.1
s(S'U20:CD/CD/)'
p6532
g74
tp6533
F0.1
s(g2848
g1007
tp6534
F0.3
s(g5180
g11
tp6535
F-0.1
s(g6168
g11
tp6536
F-0.1
s(g3327
g405
tp6537
F0.1
s(S'U14:TO'
p6538
g537
tp6539
F0.2
s(g4570
g307
tp6540
F0.1
s(g3569
g496
tp6541
F0.1
s(S'U03:a'
p6542
g377
tp6543
F0.3
s(g2116
g812
tp6544
F0.6
s(g3117
g11
tp6545
F-0.1
s(g2643
g74
tp6546
F0.1
s(g6119
g11
tp6547
F-0.1
s(g3505
g11
tp6548
F-0.1
s(g1491
g33
tp6549
F0.2
s(S'U16:RB/VBN'
p6550
g42
tp6551
F0.1
s(g4308
g11
tp6552
F-0.1
s(S"U12:''q"
p6553
g74
tp6554
F0.2
s(S'U22:VBP/RB/,'
p6555
g11
tp6556
F-0.1
s(S'U20:,/DT/NN'
p6557
g1864
tp6558
F0.1
s(g4913
g2297
tp6559
F0.1
s(S'U18:NNP/,'
p6560
g415
tp6561
F0.1
s(S'U00:itself'
p6562
g160
tp6563
F0.1
s(S'U01:Baring'
p6564
g11
tp6565
F-0.1
s(g2021
g74
tp6566
F0.1
s(g1969
g11
tp6567
F-0.1
s(g3097
g11
tp6568
F-0.1
s(S'U13:NNS'
p6569
g160
tp6570
F0.1
s(g969
g11
tp6571
F-0.3
s(S'U06:current/account'
p6572
g11
tp6573
F-0.1
s(g4471
g1202
tp6574
F0.1
s(S'U15:JJ/NN'
p6575
g1457
tp6576
F0.3
s(g1844
g11
tp6577
F-0.2
s(g3477
g11
tp6578
F-0.1
s(S'U18:DT/NN'
p6579
g155
tp6580
F0.1
s(g5150
g11
tp6581
F-0.1
s(g6114
g319
tp6582
F0.1
s(g3556
g74
tp6583
F0.2
s(g5688
g82
tp6584
F0.1
s(g2342
g11
tp6585
F-0.1
s(S'U05:helped/to'
p6586
g11
tp6587
F-0.1
s(g2920
g11
tp6588
F-0.1
s(S'U15:(/$'
p6589
g74
tp6590
F0.1
s(S'B:I-ADJP'
p6591
g356
tp6592
F0.1
s(g5491
g11
tp6593
F-0.1
s(S'U03:itself'
p6594
g933
tp6595
F0.1
s(g6366
g266
tp6596
F0.2
s(S'U00:marked'
p6597
g1211
tp6598
F0.1
s(S'U05:is/widely'
p6599
g11
tp6600
F-0.1
s(g4578
g11
tp6601
F-0.7
s(g5715
g959
tp6602
F0.1
s(g1842
g11
tp6603
F-1.8
s(g5433
g74
tp6604
F0.1
s(g2026
g11
tp6605
F-0.4
s(S'U14:DT'
p6606
g85
tp6607
F0.5
s(g574
g11
tp6608
F-0.5
s(g4595
g11
tp6609
F-0.1
s(g897
g11
tp6610
F-0.1
s(g4262
g511
tp6611
F0.1
s(g2753
g11
tp6612
F-0.1
s(S'U01:topped'
p6613
g11
tp6614
F-0.1
s(g5721
g516
tp6615
F0.1
s(S'U10:RB'
p6616
g384
tp6617
F0.1
s(g1902
g2865
tp6618
F0.1
s(g6183
g11
tp6619
F-0.1
s(S'U20:_B-1/NNP/NNP'
p6620
g11
tp6621
F-0.1
s(g1629
g347
tp6622
F0.1
s(g1039
g266
tp6623
F0.1
s(g4065
g11
tp6624
F-0.1
s(g1882
g11
tp6625
F-0.1
s(g1776
g11
tp6626
F-0.1
s(g4110
g11
tp6627
F-1.0
s(g4727
g1304
tp6628
F0.1
s(S'U06:same/time'
p6629
g11
tp6630
F-0.1
s(S'U18:NN/,'
p6631
g1304
tp6632
F0.1
s(g4317
g11
tp6633
F-0.1
s(g2946
g11
tp6634
F-0.1
s(g5284
g11
tp6635
F-0.1
s(g2206
g572
tp6636
F0.1
s(g5435
g974
tp6637
F0.1
s(S'U06:reported/for'
p6638
g433
tp6639
F0.1
s(g4841
g11
tp6640
F-0.1
s(g6599
g33
tp6641
F0.1
s(S'U03:&'
p6642
g990
tp6643
F0.1
s(g4493
g230
tp6644
F0.1
s(g6216
g841
tp6645
F0.1
s(S"U05:'s/near-record"
p6646
g11
tp6647
F-0.1
s(g5916
g11
tp6648
F-0.1
s(g4801
g11
tp6649
F-0.1
s(g6517
g2064
tp6650
F0.1
s(g1863
g11
tp6651
F-0.1
s(g1702
g11
tp6652
F-0.2
s(S'U22:CC/NNP/,'
p6653
g11
tp6654
F-0.1
s(g4338
g74
tp6655
F0.1
s(g5978
g714
tp6656
F0.1
s(g5003
g11
tp6657
F-0.2
s(g283
g216
tp6658
F0.1
s(g1262
g11
tp6659
F-0.1
s(S'U18:)/NN'
p6660
g74
tp6661
F0.1
s(g4399
g101
tp6662
F0.1
s(g1001
g433
tp6663
F0.1
s(g4951
g347
tp6664
F0.1
s(g6423
g11
tp6665
F-0.1
s(g4692
g11
tp6666
F-0.1
s(g2912
g11
tp6667
F-0.1
s(S'U15:NNP/NNPS'
p6668
g415
tp6669
F0.1
s(g702
g11
tp6670
F-0.1
s(g5448
g697
tp6671
F1.2
s(g4966
g11
tp6672
F-0.1
s(g2802
g3616
tp6673
F0.1
s(g6234
g11
tp6674
F-0.1
s(g5154
g11
tp6675
F-0.1
s(g1930
g916
tp6676
F0.1
s(S'U12:TOq'
p6677
g194
tp6678
F0.4
s(g1700
g11
tp6679
F-0.2
s(g312
g11
tp6680
F-0.1
s(S"U05:'s/restated"
p6681
g1007
tp6682
F0.1
s(S'U20:EX/MD/VB'
p6683
g1792
tp6684
F0.1
s(g3906
g2652
tp6685
F0.1
s(g4786
g11
tp6686
F-0.1
s(g3870
g74
tp6687
F0.1
s(S'U15:EX/MD'
p6688
g1792
tp6689
F0.1
s(S'U14:,'
p6690
g800
tp6691
F0.1
s(g6638
g11
tp6692
F-0.1
s(g2446
g11
tp6693
F-0.1
s(g2633
g11
tp6694
F-0.1
s(g3655
g74
tp6695
F0.2
s(g5121
g11
tp6696
F-0.1
s(g3614
g11
tp6697
F-0.1
s(g6454
g1705
tp6698
F0.1
s(S'U03:deficit'
p6699
g511
tp6700
F0.2
s(g4550
g74
tp6701
F0.1
s(g6419
g279
tp6702
F0.1
s(g6274
g74
tp6703
F0.4
s(g6324
g11
tp6704
F-0.1
s(S'U15:DT/NNS'
p6705
g353
tp6706
F0.1
s(g2282
g11
tp6707
F-0.1
s(g2431
g69
tp6708
F0.1
s(g140
g11
tp6709
F-0.1
s(g5299
g11
tp6710
F-0.1
s(g4299
g269
tp6711
F0.1
s(g5980
g3445
tp6712
F0.2
s(g4488
g974
tp6713
F0.1
s(g2483
g1058
tp6714
F0.1
s(g1343
g64
tp6715
F0.1
s(g1876
g868
tp6716
F0.1
s(S'U10:_B-1'
p6717
g714
tp6718
F0.2
s(S'U12:JJq'
p6719
g347
tp6720
F0.1
s(S'U20:JJ/NN/IN'
p6721
g11
tp6722
F-0.4
s(g5926
g14
tp6723
F0.1
s(g761
g11
tp6724
F-0.1
s(g2099
g1122
tp6725
F0.1
s(g5227
g4652
tp6726
F0.1
s(S'U14:DT'
p6727
g74
tp6728
F0.1
s(g3939
g11
tp6729
F-0.1
s(g4961
g11
tp6730
F-0.1
s(g1586
g11
tp6731
F-0.6
s(g4612
g1769
tp6732
F0.1
s(g5966
g11
tp6733
F-0.1
s(g5990
g1534
tp6734
F0.1
s(g1783
g194
tp6735
F0.2
s(g5109
g11
tp6736
F-0.1
s(S'U06:August/deficit'
p6737
g11
tp6738
F-0.1
s(g4028
g11
tp6739
F-0.1
s(S'U00:Midland'
p6740
g11
tp6741
F-0.2
s(g3796
g11
tp6742
F-0.1
s(g6143
g1485
tp6743
F0.1
s(S'U11:_B-1'
p6744
g1266
tp6745
F0.1
s(S'U01:policy'
p6746
g11
tp6747
F-0.2
s(g3592
g11
tp6748
F-0.1
s(S'U01:pound'
p6749
g11
tp6750
F-0.2
s(S'U04:economists'
p6751
g74
tp6752
F0.1
s(g4144
g11
tp6753
F-0.2
s(S'U22:,/JJ/NN'
p6754
g74
tp6755
F0.1
s(g2910
g11
tp6756
F-0.1
s(g736
g854
tp6757
F0.3
s(g6330
g74
tp6758
F0.1
s(g4393
g581
tp6759
F0.2
s(g4733
g1028
tp6760
F0.1
s(g6099
g11
tp6761
F-0.2
s(g5556
g581
tp6762
F0.1
s(g5634
g11
tp6763
F-0.1
s(g2896
g11
tp6764
F-0.1
s(g3177
g272
tp6765
F0.1
s(g2846
g213
tp6766
F0.1
s(g4749
g11
tp6767
F-0.1
s(S'U21:VBN/IN/NNP'
p6768
g11
tp6769
F-0.1
s(g1556
g1693
tp6770
F0.1
s(g3791
g11
tp6771
F-0.1
s(g487
g11
tp6772
F-0.3
s(g4768
g11
tp6773
F-0.1
s(S'U00:capital'
p6774
g424
tp6775
F0.1
s(g1667
g1394
tp6776
F0.1
s(S'U01:from'
p6777
g74
tp6778
F0.1
s(S'U18:CD/CD'
p6779
g1331
tp6780
F0.2
s(g3222
g74
tp6781
F0.1
s(g1550
g1122
tp6782
F0.1
s(g5210
g431
tp6783
F0.4
s(g6259
g11
tp6784
F-0.2
s(g3786
g74
tp6785
F0.1
s(S'U01:market'
p6786
g11
tp6787
F-0.1
s(g5015
g711
tp6788
F0.1
s(S'U20:NN/CC/NN'
p6789
g11
tp6790
F-0.1
s(g2649
g11
tp6791
F-0.1
s(S'U10:VBG'
p6792
g470
tp6793
F0.1
s(g5137
g5078
tp6794
F0.1
s(g3742
g11
tp6795
F-0.1
s(g4209
g11
tp6796
F-0.3
s(g4342
g294
tp6797
F0.1
s(S'U10:NNPS'
p6798
g11
tp6799
F-0.1
s(g5711
g11
tp6800
F-0.1
s(g1477
g1688
tp6801
F0.1
s(S'B:I-VP'
p6802
g700
tp6803
F0.1
s(g5827
g11
tp6804
F-0.1
s(g6777
g11
tp6805
F-0.1
s(g502
g74
tp6806
F0.1
s(g4135
g74
tp6807
F0.1
s(g6022
g11
tp6808
F-0.1
s(g4584
g11
tp6809
F-0.1
s(g4674
g2252
tp6810
F0.1
s(g2585
g25
tp6811
F0.2
s(g6586
g272
tp6812
F0.1
s(g3369
g74
tp6813
F0.1
s(S'U00:_B-1'
p6814
g85
tp6815
F0.1
s(g2238
g11
tp6816
F-0.1
s(S'U22:NN/NNS/IN'
p6817
g11
tp6818
F-0.1
s(S'U22:VBZ/VBN/TO'
p6819
g537
tp6820
F0.1
s(g6221
g1688
tp6821
F0.1
s(g398
g333
tp6822
F0.1
s(S'B:B-ADVP'
p6823
g2715
tp6824
F0.1
s(g3820
g11
tp6825
F-0.1
s(g3910
g11
tp6826
F-1.0
s(g6819
g11
tp6827
F-0.1
s(S'U06:for/Midland'
p6828
g2451
tp6829
F0.1
s(g1606
g82
tp6830
F2.8
s(g3740
g11
tp6831
F-0.1
s(g2294
g11
tp6832
F-0.1
s(g24
g11
tp6833
F-0.9
s(g4215
g74
tp6834
F0.1
s(g6308
g1502
tp6835
F0.2
s(g6302
g160
tp6836
F0.1
s(g5779
g11
tp6837
F-0.1
s(g5303
g11
tp6838
F-0.1
s(g799
g11
tp6839
F-0.1
s(S'U06:,/given'
p6840
g74
tp6841
F0.1
s(g3957
g11
tp6842
F-0.1
s(g5418
g11
tp6843
F-0.1
s(S'U05:the/down'
p6844
g11
tp6845
F-0.1
s(g2939
g11
tp6846
F-0.2
s(g2177
g11
tp6847
F-0.6
s(S'U06:House/speech'
p6848
g572
tp6849
F0.1
s(S'U10:JJ'
p6850
g1061
tp6851
F0.1
s(g2433
g11
tp6852
F-0.1
s(g3632
g11
tp6853
F-0.1
s(S'U13:IN'
p6854
g394
tp6855
F1.8
s(g2835
g11
tp6856
F-0.1
s(g5071
g11
tp6857
F-0.2
s(S'U12:CCq'
p6858
g1012
tp6859
F0.3
s(g578
g11
tp6860
F-0.5
s(S'U20:NNP/POS/JJ'
p6861
g11
tp6862
F-0.1
s(g174
g11
tp6863
F-0.1
s(g5389
g11
tp6864
F-0.2
s(g4160
g11
tp6865
F-0.1
s(g198
g347
tp6866
F0.1
s(g6737
g511
tp6867
F0.1
s(g1489
g11
tp6868
F-0.1
s(g5080
g1534
tp6869
F0.1
s(g3692
g11
tp6870
F-0.1
s(g2573
g85
tp6871
F0.1
s(g107
g11
tp6872
F-0.1
s(g4602
g1238
tp6873
F0.1
s(g18
g11
tp6874
F-0.1
s(g5878
g11
tp6875
F-0.1
s(g6774
g11
tp6876
F-0.1
s(g6011
g74
tp6877
F0.1
s(S'U01:_B-1'
p6878
g1266
tp6879
F0.1
s(S'B:B-ADJP'
p6880
g74
tp6881
F0.1
s(S'U04:#'
p6882
g11
tp6883
F-0.3
s(g1781
g11
tp6884
F-0.1
s(g3027
g11
tp6885
F-0.1
s(S'U03:House'
p6886
g391
tp6887
F0.1
s(g1979
g152
tp6888
F0.1
s(S'U10:CD'
p6889
g694
tp6890
F0.3
s(g5385
g496
tp6891
F0.1
s(S'U04:Mansion'
p6892
g3229
tp6893
F0.1
s(g5040
g11
tp6894
F-0.1
s(g1622
g11
tp6895
F-0.1
s(g1393
g11
tp6896
F-0.1
s(S'U21:NN/CC/DT'
p6897
g74
tp6898
F0.1
s(g2014
g33
tp6899
F0.1
s(g1789
g599
tp6900
F0.1
s(g2461
g11
tp6901
F-0.2
s(g849
g11
tp6902
F-0.1
s(g1199
g11
tp6903
F-0.1
s(g6379
g11
tp6904
F-0.1
s(g5829
g11
tp6905
F-0.1
s(g1951
g11
tp6906
F-0.1
s(g2532
g1243
tp6907
F0.1
s(g3247
g11
tp6908
F-0.1
s(g5158
g405
tp6909
F0.1
s(g4568
g11
tp6910
F-1.0
s(g4730
g11
tp6911
F-0.1
s(S'B:B-NP'
p6912
g11
tp6913
F-22.9
s(g2922
g11
tp6914
F-0.1
s(g3836
g1136
tp6915
F0.1
s(g2438
g11
tp6916
F-0.1
s(g244
g1548
tp6917
F0.1
s(g6502
g11
tp6918
F-0.1
s(g1303
g11
tp6919
F-0.1
s(S'U17:RB/IN'
p6920
g11
tp6921
F-0.2
s(g4629
g79
tp6922
F0.1
s(g3503
g1341
tp6923
F0.1
s(g4034
g1502
tp6924
F0.2
s(g5593
g11
tp6925
F-0.1
s(g3874
g289
tp6926
F0.1
s(g1564
g11
tp6927
F-0.1
s(S'U22:NNP/POS/JJ'
p6928
g11
tp6929
F-0.1
s(g1909
g11
tp6930
F-0.1
s(S'U02:marked'
p6931
g11
tp6932
F-0.1
s(g4654
g11
tp6933
F-0.1
s(g1651
g2652
tp6934
F0.2
s(S'U13:CD'
p6935
g14
tp6936
F0.1
s(g5427
g74
tp6937
F0.1
s(g3756
g11
tp6938
F-0.1
s(S'U03:commitment'
p6939
g1007
tp6940
F0.1
s(g5203
g11
tp6941
F-0.1
s(S'U14:VB'
p6942
g247
tp6943
F0.1
s(g5225
g944
tp6944
F0.1
s(S'U20:IN/NNP/.'
p6945
g74
tp6946
F0.1
s(g4829
g11
tp6947
F-0.1
s(g1573
g11
tp6948
F-0.1
s(S'U06:eroded/by'
p6949
g11
tp6950
F-0.1
s(g3880
g11
tp6951
F-0.1
s(g5069
g11
tp6952
F-0.2
s(S"U04:'s"
p6953
g225
tp6954
F0.1
s(S'U13:NNS'
p6955
g178
tp6956
F0.1
s(g6368
g11
tp6957
F-0.1
s(g5124
g4787
tp6958
F0.1
s(g2080
g5
tp6959
F0.1
s(g5324
g11
tp6960
F-0.3
s(g4477
g1141
tp6961
F0.1
s(g5731
g11
tp6962
F-1.5
s(g5021
g1266
tp6963
F0.1
s(g3713
g74
tp6964
F0.1
s(g3286
g74
tp6965
F0.1
s(S'U21:DT/NN/NNS'
p6966
g11
tp6967
F-0.1
s(g234
g194
tp6968
F0.1
s(S'U15:VBN/RB'
p6969
g11
tp6970
F-0.1
s(g5751
g11
tp6971
F-0.1
s(g4187
g405
tp6972
F0.1
s(g1802
g11
tp6973
F-0.5
s(g2684
g581
tp6974
F0.1
s(g6009
g11
tp6975
F-0.1
s(g6589
g11
tp6976
F-0.1
s(S'U02:could'
p6977
g11
tp6978
F-0.1
s(g4463
g74
tp6979
F0.2
s(S'U06:pound/is'
p6980
g2064
tp6981
F0.1
s(g306
g11
tp6982
F-0.1
s(g4639
g792
tp6983
F0.1
s(g6928
g266
tp6984
F0.1
s(S'U06:marked/improvement'
p6985
g11
tp6986
F-0.1
s(g5170
g74
tp6987
F0.1
s(S'U14:JJ'
p6988
g1243
tp6989
F0.2
s(g4999
g11
tp6990
F-0.5
s(S'U04:is'
p6991
g2865
tp6992
F0.1
s(S'U00:of'
p6993
g74
tp6994
F0.1
s(g2690
g172
tp6995
F0.1
s(S'U06:measures/in'
p6996
g1238
tp6997
F0.1
s(S'U14:VBN'
p6998
g1548
tp6999
F0.2
s(g2867
g11
tp7000
F-0.1
s(g5097
g11
tp7001
F-0.3
s(g6646
g762
tp7002
F0.1
s(g6149
g181
tp7003
F0.1
s(g2327
g11
tp7004
F-0.1
s(S'U22:IN/NNP/.'
p7005
g1688
tp7006
F0.1
s(g5215
g74
tp7007
F0.1
s(g6145
g2405
tp7008
F0.2
s(S'U18:./_B+1'
p7009
g879
tp7010
F0.1
s(g2221
g11
tp7011
F-0.3
s(g1075
g181
tp7012
F0.1
s(g1755
g1122
tp7013
F0.1
s(S'U17:RB/,'
p7014
g11
tp7015
F-0.1
s(S'U05:expected/to'
p7016
g384
tp7017
F0.1
s(g3801
g1007
tp7018
F0.1
s(g6848
g11
tp7019
F-0.1
s(g1407
g714
tp7020
F0.1
s(S'U05:Thursday/.'
p7021
g74
tp7022
F0.1
s(g2110
g1058
tp7023
F0.2
s(g6532
g11
tp7024
F-0.1
s(S'U00:August'
p7025
g74
tp7026
F0.1
s(S'U04:the'
p7027
g85
tp7028
F0.2
s(g5928
g74
tp7029
F0.1
s(g3465
g1012
tp7030
F0.1
s(g3783
g11
tp7031
F-0.1
s(g5046
g854
tp7032
F0.2
s(g2816
g1028
tp7033
F0.1
s(g2448
g11
tp7034
F-0.1
s(g3348
g1114
tp7035
F0.1
s(S'U00:Bank'
p7036
g11
tp7037
F-0.1
s(g2436
g697
tp7038
F0.1
s(g6746
g537
tp7039
F0.1
s(g1510
g1591
tp7040
F0.1
s(S'U05:the/#'
p7041
g1331
tp7042
F0.2
s(g2667
g74
tp7043
F0.1
s(S'U13:NNP'
p7044
g1058
tp7045
F0.9
s(S'U01:are'
p7046
g128
tp7047
F0.1
s(g6555
g800
tp7048
F0.1
s(g5737
g11
tp7049
F-0.4
s(S'U12:RBq'
p7050
g96
tp7051
F0.1
s(g6297
g11
tp7052
F-0.1
s(g3936
g11
tp7053
F-0.1
s(g4991
g11
tp7054
F-0.1
s(S'U21:NNP/NN/CC'
p7055
g342
tp7056
F0.1
s(g4837
g719
tp7057
F1.0
s(S'U14:IN'
p7058
g2019
tp7059
F0.9
s(g5949
g3445
tp7060
F0.1
s(g6886
g11
tp7061
F-0.1
s(g3804
g279
tp7062
F0.1
s(g4354
g11
tp7063
F-0.1
s(g6557
g11
tp7064
F-0.1
s(S'U22:IN/NN/NN'
p7065
g11
tp7066
F-0.1
s(S'U22:,/VBD/EX'
p7067
g74
tp7068
F0.1
s(g3657
g1457
tp7069
F0.2
s(S'U16:#/CD'
p7070
g11
tp7071
F-0.3
s(S'U14:NN'
p7072
g74
tp7073
F0.5
s(g4816
g11
tp7074
F-0.1
s(S'U15:NNS/TO'
p7075
g11
tp7076
F-0.1
s(S'U16:NN/CC'
p7077
g175
tp7078
F0.1
s(g3904
g1157
tp7079
F0.2
s(S'U03:their'
p7080
g987
tp7081
F0.1
s(g6264
g356
tp7082
F0.1
s(g166
g812
tp7083
F0.1
s(g1675
g11
tp7084
F-0.1
s(g2039
g11
tp7085
F-0.1
s(g5475
g11
tp7086
F-0.3
s(g2994
g11
tp7087
F-0.1
s(S'U16:CC/NNP'
p7088
g266
tp7089
F0.2
s(g3902
g11
tp7090
F-0.1
s(S'U21:JJ/IN/NN'
p7091
g436
tp7092
F0.1
s(g2084
g74
tp7093
F0.1
s(g639
g933
tp7094
F0.1
s(g1096
g845
tp7095
F0.1
s(g1625
g11
tp7096
F-0.1
s(S'U14:DT'
p7097
g294
tp7098
F0.6
s(g1167
g691
tp7099
F0.1
s(g6660
g11
tp7100
F-0.1
s(S'U02:.'
p7101
g11
tp7102
F-1.0
s(g1732
g11
tp7103
F-0.1
s(g2522
g845
tp7104
F0.1
s(S'U05:$/3.2'
p7105
g11
tp7106
F-0.1
s(g5619
g11
tp7107
F-0.1
s(g5639
g74
tp7108
F0.1
s(S'U06:in/his'
p7109
g11
tp7110
F-0.1
s(g6448
g11
tp7111
F-0.1
s(g6485
g11
tp7112
F-0.1
s(S'U13:NN'
p7113
g5
tp7114
F0.5
s(g4479
g11
tp7115
F-0.1
s(g6289
g11
tp7116
F-0.4
s(g4054
g74
tp7117
F0.1
s(g4301
g2019
tp7118
F0.1
s(S'U05:``/If'
p7119
g11
tp7120
F-0.1
s(g6246
g11
tp7121
F-0.1
s(S'U03:industry'
p7122
g2865
tp7123
F0.1
s(g185
g11
tp7124
F-0.1
s(g5333
g11
tp7125
F-0.1
s(g5612
g74
tp7126
F0.1
s(S'U17:NNS/.'
p7127
g3445
tp7128
F0.2
s(S'U14:NN'
p7129
g868
tp7130
F0.2
s(g6427
g841
tp7131
F0.1
s(g3889
g11
tp7132
F-0.1
s(S'U01:freefall'
p7133
g11
tp7134
F-0.1
s(S'U00:Co.'
p7135
g11
tp7136
F-0.1
s(g5162
g11
tp7137
F-0.2
s(g35
g694
tp7138
F0.5
s(S'U03:August'
p7139
g1012
tp7140
F0.1
s(g6553
g11
tp7141
F-0.2
s(g5771
g11
tp7142
F-0.2
s(g5806
g74
tp7143
F0.1
s(S'U18:NNS/VBP'
p7144
g74
tp7145
F0.1
s(g393
g11
tp7146
F-0.1
s(g3343
g11
tp7147
F-0.1
s(g1829
g879
tp7148
F0.1
s(g4002
g11
tp7149
F-0.2
s(S'B:O'
p7150
g74
tp7151
F0.9
s(g7055
g11
tp7152
F-0.1
s(g1831
g933
tp7153
F0.1
s(g4717
g11
tp7154
F-0.2
s(S'U06:Chancellor/of'
p7155
g74
tp7156
F0.1
s(g5336
g857
tp7157
F0.1
s(g6400
g2019
tp7158
F0.1
s(g7065
g436
tp7159
F0.1
s(S'U13:VBN'
p7160
g898
tp7161
F0.2
s(g6051
g11
tp7162
F-0.1
s(g2383
g2052
tp7163
F0.1
s(g1955
g11
tp7164
F-0.2
s(g3471
g11
tp7165
F-0.3
s(S'U02:risk'
p7166
g79
tp7167
F0.1
s(g430
g11
tp7168
F-0.1
s(S'U02:Bank'
p7169
g11
tp7170
F-0.1
s(S'U22:``/IN/EX'
p7171
g11
tp7172
F-0.1
s(g4365
g11
tp7173
F-4.4
s(g588
g4652
tp7174
F0.1
s(g4926
g11
tp7175
F-0.1
s(S'U17:VBN/IN'
p7176
g269
tp7177
F0.1
s(S'U04:bad'
p7178
g19
tp7179
F0.1
s(S'U06:%/from'
p7180
g1733
tp7181
F0.1
s(g2407
g11
tp7182
F-1.9
s(g4432
g11
tp7183
F-0.4
s(g6155
g762
tp7184
F0.1
s(g5706
g11
tp7185
F-0.1
s(g3894
g1194
tp7186
F0.3
s(g3698
g11
tp7187
F-0.1
s(g847
g74
tp7188
F0.1
s(g508
g11
tp7189
F-0.2
s(g923
g599
tp7190
F0.1
s(g6038
g11
tp7191
F-0.1
s(g6844
g1676
tp7192
F0.1
s(g6195
g537
tp7193
F0.1
s(g7021
g11
tp7194
F-0.1
s(g5571
g1263
tp7195
F0.1
s(g5375
g11
tp7196
F-0.1
s(S'U11:VBN'
p7197
g2052
tp7198
F0.2
s(g2301
g1202
tp7199
F0.1
s(g2378
g11
tp7200
F-0.1
s(g2296
g11
tp7201
F-0.1
s(S'U02:has'
p7202
g11
tp7203
F-0.3
s(g4643
g762
tp7204
F0.1
s(S'U04:European'
p7205
g714
tp7206
F0.1
s(g411
g581
tp7207
F0.6
s(g4651
g11
tp7208
F-0.1
s(g5439
g691
tp7209
F0.1
s(g6594
g11
tp7210
F-0.1
s(g3534
g11
tp7211
F-0.1
s(g6384
g898
tp7212
F0.1
s(g6062
g470
tp7213
F0.1
s(g6977
g944
tp7214
F0.1
s(S'U00:speech'
p7215
g11
tp7216
F-0.1
s(g1487
g64
tp7217
F0.1
s(S'U13:NNP'
p7218
g1502
tp7219
F0.2
s(g7014
g125
tp7220
F0.1
s(g1659
g11
tp7221
F-1.4
s(g4981
g1688
tp7222
F0.1
s(S'U02:heavily'
p7223
g96
tp7224
F0.1
s(g7155
g11
tp7225
F-0.1
s(g5753
g11
tp7226
F-0.1
s(S'U20:,/NNP/NN'
p7227
g4005
tp7228
F0.1
s(S'U15:RB/VBN'
p7229
g384
tp7230
F0.1
s(g5383
g11
tp7231
F-0.1
s(S'U04:#'
p7232
g74
tp7233
F0.1
s(g856
g11
tp7234
F-0.1
s(S'U05:to/increase'
p7235
g8
tp7236
F0.1
s(g5012
g8
tp7237
F0.1
s(S'U04:said'
p7238
g74
tp7239
F0.1
s(S'U01:manufacturing'
p7240
g11
tp7241
F-0.1
s(g5250
g11
tp7242
F-0.1
s(g5339
g93
tp7243
F0.1
s(g478
g11
tp7244
F-0.1
s(g6996
g11
tp7245
F-0.1
s(S'U17:JJ/IN'
p7246
g347
tp7247
F0.1
s(g5356
g496
tp7248
F0.1
s(g6076
g1157
tp7249
F0.1
s(S'U03:at'
p7250
g11
tp7251
F-0.2
s(g2472
g11
tp7252
F-0.1
s(g335
g11
tp7253
F-0.1
s(g2217
g1688
tp7254
F0.1
s(g935
g74
tp7255
F1.0
s(g112
g74
tp7256
F0.2
s(g5930
g11
tp7257
F-0.1
s(S'U18:DT/NN'
p7258
g377
tp7259
F0.3
s(g1998
g711
tp7260
F0.1
s(g5199
g11
tp7261
F-0.1
s(g699
g11
tp7262
F-0.1
s(g6681
g11
tp7263
F-0.1
s(g2954
g11
tp7264
F-0.6
s(g2272
g959
tp7265
F0.2
s(g3392
g635
tp7266
F0.1
s(g6450
g74
tp7267
F0.1
s(S'U03:for'
p7268
g433
tp7269
F0.1
s(g4288
g11
tp7270
F-0.1
s(g6945
g11
tp7271
F-0.1
s(S'U02:over'
p7272
g289
tp7273
F0.1
s(S'U10:VB'
p7274
g1632
tp7275
F0.1
s(g4994
g11
tp7276
F-0.2
s(S'U10:VBZ'
p7277
g1540
tp7278
F0.2
s(g776
g175
tp7279
F0.1
s(g3154
g11
tp7280
F-0.2
s(g4269
g11
tp7281
F-0.1
s(g1904
g1136
tp7282
F0.1
s(g3362
g11
tp7283
F-0.1
s(g6798
g1133
tp7284
F0.1
s(g3339
g216
tp7285
F0.1
s(g3651
g74
tp7286
F0.1
s(S'U11:VBZ'
p7287
g496
tp7288
F0.1
s(g5846
g11
tp7289
F-0.1
s(g4932
g11
tp7290
F-0.1
s(g3423
g1688
tp7291
F0.1
s(g4063
g697
tp7292
F0.1
s(S'U06:pessimistic/about'
p7293
g347
tp7294
F0.1
s(g6892
g11
tp7295
F-0.1
s(g4810
g11
tp7296
F-0.2
s(g744
g11
tp7297
F-0.2
s(S'U13:IN'
p7298
g921
tp7299
F0.1
s(g6488
g2019
tp7300
F0.1
s(g6414
g11
tp7301
F-0.1
s(S'U14:CD'
p7302
g807
tp7303
F0.1
s(g4327
g125
tp7304
F0.1
s(g6007
g1502
tp7305
F0.2
s(S'B:B-VP'
p7306
g74
tp7307
F0.1
s(S'U20:DT/NNS/TO'
p7308
g353
tp7309
F0.1
s(S'U22:IN/PRP$/NNP'
p7310
g3229
tp7311
F0.1
s(g360
g3463
tp7312
F0.1
s(S'U05:the/chancellor'
p7313
g11
tp7314
F-0.1
s(g321
g11
tp7315
F-0.1
s(g5502
g433
tp7316
F0.1
s(g6949
g921
tp7317
F0.1
s(g1440
g96
tp7318
F0.1
s(g5307
g74
tp7319
F0.1
s(S'U03:noted'
p7320
g11
tp7321
F-0.1
s(g3605
g700
tp7322
F0.1
s(g4438
g463
tp7323
F0.1
s(g4405
g11
tp7324
F-0.1
s(g4137
g694
tp7325
F0.1
s(g553
g1591
tp7326
F0.1
s(S'U10:JJ'
p7327
g216
tp7328
F0.7
s(g2979
g11
tp7329
F-0.1
s(S'U13:.'
p7330
g879
tp7331
F0.1
s(S'U06:,/European'
p7332
g74
tp7333
F0.1
s(g3305
g339
tp7334
F0.1
s(g2918
g11
tp7335
F-0.1
s(g2450
g11
tp7336
F-0.2
s(S'U02:#'
p7337
g1331
tp7338
F0.2
s(g7223
g11
tp7339
F-0.1
s(g6931
g3636
tp7340
F0.1
s(g2358
g11
tp7341
F-0.1
s(g3706
g11
tp7342
F-0.2
s(S'B:B-VP'
p7343
g496
tp7344
F0.1
s(g6897
g11
tp7345
F-0.1
s(g6597
g11
tp7346
F-0.1
s(g304
g1705
tp7347
F0.1
s(g1030
g74
tp7348
F0.1
s(g6513
g74
tp7349
F0.1
s(g4855
g11
tp7350
F-0.1
s(S'U14:NNS'
p7351
g827
tp7352
F0.6
s(g4606
g11
tp7353
F-0.1
s(g2790
g11
tp7354
F-0.7
s(g663
g108
tp7355
F0.1
s(g2491
g11
tp7356
F-0.8
s(g6412
g11
tp7357
F-0.1
s(g1055
g1263
tp7358
F0.1
s(g4030
g2064
tp7359
F0.1
s(g4899
g1238
tp7360
F0.2
s(g6163
g11
tp7361
F-0.1
s(g5105
g11
tp7362
F-0.2
s(g6403
g11
tp7363
F-0.1
s(S'U16:,/VB'
p7364
g247
tp7365
F0.1
s(g3987
g350
tp7366
F0.1
s(g7293
g11
tp7367
F-0.1
s(S'U18:DT/JJ'
p7368
g19
tp7369
F0.1
s(g5880
g74
tp7370
F0.1
s(g6141
g11
tp7371
F-0.1
s(g4908
g1194
tp7372
F0.1
s(g5849
g11
tp7373
F-0.1
s(g6496
g11
tp7374
F-0.1
s(g6768
g2297
tp7375
F0.1
s(g5963
g11
tp7376
F-0.1
s(g751
g11
tp7377
F-0.2
s(S'U22:IN/DT/JJ'
p7378
g289
tp7379
F0.5
s(g4546
g967
tp7380
F0.1
s(g1235
g11
tp7381
F-0.1
s(g5344
g11
tp7382
F-0.1
s(S'U06:Research/Institute'
p7383
g11
tp7384
F-0.1
s(g3234
g11
tp7385
F-0.1
s(g2391
g1548
tp7386
F0.1
s(S'U14:NNS'
p7387
g1061
tp7388
F0.1
s(S'B:B-NP'
p7389
g85
tp7390
F0.9
s(g4876
g30
tp7391
F0.1
s(g6334
g11
tp7392
F-0.1
s(g3981
g11
tp7393
F-0.1
s(g3752
g11
tp7394
F-0.1
s(g5241
g907
tp7395
F0.1
s(g725
g307
tp7396
F0.2
s(g1023
g868
tp7397
F0.1
s(g6280
g11
tp7398
F-0.1
s(g6500
g11
tp7399
F-0.1
s(g6629
g3194
tp7400
F0.1
s(g565
g1202
tp7401
F0.1
s(S'B:I-NP'
p7402
g1061
tp7403
F0.2
s(g3312
g11
tp7404
F-0.1
s(g1421
g64
tp7405
F0.1
s(g5863
g11
tp7406
F-0.2
s(g583
g907
tp7407
F0.1
s(S'U14:CC'
p7408
g511
tp7409
F0.2
s(g5296
g1733
tp7410
F0.2
s(S'U04:are'
p7411
g11
tp7412
F-0.2
s(g5197
g5
tp7413
F0.5
s(g4760
g11
tp7414
F-0.1
s(g2131
g11
tp7415
F-0.1
s(g2788
g511
tp7416
F0.1
s(S'U14:VBZ'
p7417
g74
tp7418
F0.1
s(S'U17:IN/NN'
p7419
g1061
tp7420
F0.1
s(g5222
g3229
tp7421
F0.2
s(S'U10:_B-2'
p7422
g1266
tp7423
F0.1
s(S'U21:TO/VB/NNS'
p7424
g160
tp7425
F0.1
s(g3458
g11
tp7426
F-0.1
s(g6153
g11
tp7427
F-1.3
s(S'U10:VBP'
p7428
g11
tp7429
F-0.5
s(g778
g2019
tp7430
F0.1
s(g1631
g11
tp7431
F-0.1
s(g6562
g11
tp7432
F-0.1
s(g2467
g11
tp7433
F-0.1
s(g809
g3497
tp7434
F0.1
s(g806
g11
tp7435
F-0.1
s(S'U06:is/another'
p7436
g11
tp7437
F-0.1
s(g1840
g11
tp7438
F-0.3
s(g5191
g11
tp7439
F-0.1
s(g3147
g11
tp7440
F-0.3
s(g6920
g96
tp7441
F0.1
s(g637
g2126
tp7442
F0.1
s(g6393
g74
tp7443
F0.1
s(g4806
g11
tp7444
F-0.1
s(g3396
g11
tp7445
F-0.1
s(g1306
g11
tp7446
F-0.1
s(g4690
g11
tp7447
F-0.2
s(g4937
g1194
tp7448
F0.1
s(S'B:I-ADVP'
p7449
g333
tp7450
F0.1
s(g621
g11
tp7451
F-0.4
s(S'U10:VB'
p7452
g74
tp7453
F0.1
s(g782
g458
tp7454
F0.1
s(g7308
g11
tp7455
F-0.1
s(g1109
g898
tp7456
F0.1
s(g3425
g11
tp7457
F-0.1
s(g5842
g1243
tp7458
F0.1
s(g7036
g74
tp7459
F0.1
s(S'U14:IN'
p7460
g1114
tp7461
F0.2
s(S'B:B-PP'
p7462
g74
tp7463
F0.1
s(g1934
g987
tp7464
F0.1
s(g2557
g11
tp7465
F-0.1
s(g4789
g11
tp7466
F-0.1
s(g493
g11
tp7467
F-0.2
s(S'U02:sharp'
p7468
g11
tp7469
F-0.1
s(S'U05:figures/range'
p7470
g11
tp7471
F-0.1
s(g5134
g2511
tp7472
F0.1
s(g5395
g907
tp7473
F0.1
s(g6493
g1513
tp7474
F0.1
s(g6482
g11
tp7475
F-0.1
s(g2051
g11
tp7476
F-0.1
s(g6479
g3616
tp7477
F0.1
s(S'U22:CC/NN/NNS'
p7478
g175
tp7479
F0.1
s(g4112
g921
tp7480
F0.1
s(g4889
g11
tp7481
F-0.1
s(g1560
g74
tp7482
F0.2
s(g4385
g1007
tp7483
F2.6
s(g4687
g11
tp7484
F-0.3
s(g3979
g172
tp7485
F0.2
s(g7135
g350
tp7486
F0.1
s(g682
g11
tp7487
F-0.3
s(g3187
g74
tp7488
F0.1
s(g835
g266
tp7489
F0.1
s(g4387
g11
tp7490
F-0.1
s(g1580
g11
tp7491
F-0.1
s(g7272
g11
tp7492
F-0.1
s(g46
g11
tp7493
F-0.1
s(g7109
g3229
tp7494
F0.1
s(S'U15:JJ/NNS'
p7495
g74
tp7496
F0.1
s(g1045
g11
tp7497
F-0.7
s(g2823
g11
tp7498
F-0.3
s(g4953
g384
tp7499
F0.1
s(g6668
g11
tp7500
F-0.1
s(g6840
g11
tp7501
F-0.1
s(g7101
g74
tp7502
F1.0
s(S'U00:fail'
p7503
g11
tp7504
F-0.1
s(g3607
g11
tp7505
F-0.1
s(g3897
g11
tp7506
F-0.3
s(g5387
g11
tp7507
F-0.1
s(g2905
g11
tp7508
F-0.1
s(S'U00:analysts'
p7509
g11
tp7510
F-0.1
s(g6460
g128
tp7511
F0.1
s(g4415
g11
tp7512
F-0.1
s(g1813
g537
tp7513
F0.2
s(g4536
g11
tp7514
F-0.1
s(g2393
g74
tp7515
F0.1
s(g6653
g415
tp7516
F0.1
s(S'U18:IN/DT'
p7517
g347
tp7518
F0.1
s(g7235
g11
tp7519
F-0.1
s(g4988
g11
tp7520
F-0.1
s(g2738
g11
tp7521
F-0.1
s(g6425
g339
tp7522
F0.1
s(g4983
g11
tp7523
F-0.1
s(g3323
g74
tp7524
F0.1
s(g515
g11
tp7525
F-0.1
s(g5812
g987
tp7526
F0.2
s(g6642
g11
tp7527
F-0.1
s(S'U02:2.3'
p7528
g5359
tp7529
F0.1
s(g4457
g1534
tp7530
F0.1
s(g4964
g11
tp7531
F-0.1
s(g7227
g11
tp7532
F-0.1
s(g1986
g74
tp7533
F0.1
s(g7016
g11
tp7534
F-0.1
s(g2777
g342
tp7535
F0.1
s(g6506
g11
tp7536
F-0.1
s(g851
g307
tp7537
F0.1
s(S'U05:_B-1/At'
p7538
g11
tp7539
F-0.1
s(g3932
g11
tp7540
F-0.1
s(g7424
g11
tp7541
F-0.1
s(S'U14:CD'
p7542
g74
tp7543
F0.3
s(g5301
g11
tp7544
F-0.1
s(g4604
g74
tp7545
F0.1
s(S'U03:analysts'
p7546
g74
tp7547
F0.1
s(g1171
g11
tp7548
F-0.2
s(g171
g11
tp7549
F-0.1
s(g4297
g272
tp7550
F0.1
s(g49
g1194
tp7551
F0.1
s(g7240
g749
tp7552
F0.1
s(g6749
g74
tp7553
F0.1
s(g2414
g11
tp7554
F-0.2
s(g4827
g516
tp7555
F0.1
s(g6285
g74
tp7556
F0.1
s(g6389
g11
tp7557
F-0.4
s(g3179
g11
tp7558
F-0.1
s(S'U10:,'
p7559
g711
tp7560
F0.1
s(g3191
g1211
tp7561
F0.1
s(g2985
g11
tp7562
F-0.1
s(S'U16:CD/CD'
p7563
g339
tp7564
F0.2
s(g2983
g11
tp7565
F-0.1
s(g6985
g3636
tp7566
F0.1
s(g3439
g11
tp7567
F-0.2
s(S'B:O'
p7568
g14
tp7569
F0.2
s(g4379
g11
tp7570
F-0.1
s(g7383
g25
tp7571
F0.1
s(g6193
g11
tp7572
F-0.1
s(g423
g11
tp7573
F-0.1
s(g327
g11
tp7574
F-0.7
s(g740
g194
tp7575
F0.1
s(g6171
g74
tp7576
F0.1
s(g1071
g74
tp7577
F0.1
s(S'U18:NNP/NN'
p7578
g74
tp7579
F0.1
s(g2066
g854
tp7580
F0.1
s(g3010
g11
tp7581
F-3.6
s(g5218
g11
tp7582
F-0.1
s(g5280
g11
tp7583
F-0.1
s(g6966
g2123
tp7584
F0.1
s(g1100
g11
tp7585
F-0.1
s(g1146
g328
tp7586
F0.1
s(g948
g11
tp7587
F-0.3
s(g6406
g356
tp7588
F0.1
s(g4445
g74
tp7589
F0.1
s(g2009
g11
tp7590
F-0.1
s(g2143
g11
tp7591
F-0.1
s(g7364
g11
tp7592
F-0.1
s(g4894
g11
tp7593
F-0.1
s(g6069
g11
tp7594
F-0.1
s(g4360
g11
tp7595
F-0.1
s(g539
g353
tp7596
F0.1
s(g887
g11
tp7597
F-0.1
s(g3554
g5359
tp7598
F0.1
s(g5472
g11
tp7599
F-0.1
s(g2705
g1457
tp7600
F0.1
s(g5595
g2126
tp7601
F0.1
s(g6754
g11
tp7602
F-0.1
s(g7378
g11
tp7603
F-0.5
s(g4443
g11
tp7604
F-0.1
s(g2133
g1122
tp7605
F0.1
s(g2688
g2451
tp7606
F0.1
s(g5507
g632
tp7607
F0.1
s(g4970
g424
tp7608
F0.1
s(g5176
g11
tp7609
F-0.1
s(g5286
g11
tp7610
F-0.1
s(S'U14:PRP'
p7611
g3173
tp7612
F0.1
s(g5652
g11
tp7613
F-0.1
s(g4278
g342
tp7614
F0.1
s(g7166
g11
tp7615
F-0.1
s(g6882
g1211
tp7616
F0.2
s(g7538
g1266
tp7617
F0.1
s(g1697
g11
tp7618
F-0.1
s(g5450
g11
tp7619
F-0.1
s(g5816
g458
tp7620
F0.1
s(S'U03:by'
p7621
g700
tp7622
F0.1
s(g534
g74
tp7623
F0.1
s(g7067
g11
tp7624
F-0.1
s(g3279
g11
tp7625
F-0.3
s(g1791
g11
tp7626
F-0.1
s(g7133
g5
tp7627
F0.1
s(g5663
g1188
tp7628
F0.1
s(g2422
g11
tp7629
F-0.1
s(g994
g812
tp7630
F0.1
s(g2975
g11
tp7631
F-0.1
s(g3268
g11
tp7632
F-0.1
s(g2901
g74
tp7633
F0.1
s(g5093
g11
tp7634
F-0.1
s(g3008
g11
tp7635
F-0.1
s(S'U12:RBq'
p7636
g496
tp7637
F0.1
s(S'U20:JJ/NNP/.'
p7638
g74
tp7639
F0.1
s(g5933
g11
tp7640
F-0.1
s(g4538
g11
tp7641
F-0.2
s(g6475
g11
tp7642
F-0.2
s(g7122
g11
tp7643
F-0.1
s(g4451
g1457
tp7644
F0.1
s(S'U12:INq'
p7645
g1061
tp7646
F0.3
s(g5188
g1007
tp7647
F0.2
s(S'U15:NN/NNS'
p7648
g424
tp7649
F0.1
s(g5037
g11
tp7650
F-0.1
s(g4920
g11
tp7651
F-0.1
s(g6160
g516
tp7652
F0.1
s(g7105
g74
tp7653
F0.1
s(g3777
g868
tp7654
F0.1
s(S'U18:DT/NN'
p7655
g74
tp7656
F0.1
s(g2526
g11
tp7657
F-0.1
s(S'U02:speech'
p7658
g1136
tp7659
F0.1
s(g5342
g2865
tp7660
F0.1
s(g5278
g1004
tp7661
F0.1
s(g5066
g11
tp7662
F-0.1
s(g5566
g11
tp7663
F-0.1
s(g4713
g74
tp7664
F0.1
s(g1317
g394
tp7665
F0.1
s(g4189
g1502
tp7666
F0.1
s(g2201
g11
tp7667
F-0.2
s(g7091
g11
tp7668
F-0.1
s(g5254
g415
tp7669
F0.1
s(g7468
g1263
tp7670
F0.1
s(g7509
g74
tp7671
F0.1
s(g893
g405
tp7672
F0.1
s(g3927
g11
tp7673
F-0.1
s(g7180
g11
tp7674
F-0.1
s(g6564
g990
tp7675
F0.1
s(g7075
g1851
tp7676
F0.1
s(g7080
g11
tp7677
F-0.1
s(S'U03:,'
p7678
g125
tp7679
F0.1
s(g6272
g11
tp7680
F-0.1
s(g561
g2019
tp7681
F0.1
s(g3886
g74
tp7682
F0.1
s(g1721
g898
tp7683
F0.1
s(g2536
g11
tp7684
F-0.3
s(g2125
g11
tp7685
F-0.1
s(g6372
g868
tp7686
F0.1
s(g4556
g11
tp7687
F-0.1
s(S'U10:VBP'
p7688
g635
tp7689
F0.2
s(g6128
g1632
tp7690
F0.1
s(g6344
g11
tp7691
F-0.1
s(g4020
g11
tp7692
F-0.1
s(g7411
g1004
tp7693
F0.1
s(g4857
g141
tp7694
F0.1
s(S'U13:NNP'
p7695
g225
tp7696
F0.1
s(g4325
g1015
tp7697
F0.1
s(g5402
g2310
tp7698
F0.1
s(g6278
g11
tp7699
F-0.2
s(g2457
g79
tp7700
F0.1
s(g3683
g11
tp7701
F-0.8
s(g4755
g11
tp7702
F-0.2
s(g7215
g3616
tp7703
F0.1
s(g2707
g479
tp7704
F0.2
s(g6490
g11
tp7705
F-0.1
s(g2886
g1540
tp7706
F0.1
s(g196
g11
tp7707
F-0.2
s(g7528
g11
tp7708
F-0.1
s(g6158
g1676
tp7709
F0.2
s(g4591
g1243
tp7710
F0.1
s(g7436
g19
tp7711
F0.1
s(g7171
g74
tp7712
F0.1
s(g7638
g11
tp7713
F-0.1
s(g232
g879
tp7714
F0.2
s(g4467
g11
tp7715
F-0.2
s(g7127
g11
tp7716
F-0.2
s(g3564
g11
tp7717
F-0.1
s(S'U21:NNS/NNS/.'
p7718
g424
tp7719
F0.1
s(g5425
g470
tp7720
F0.1
s(S'U14:JJ'
p7721
g74
tp7722
F0.1
s(g874
g328
tp7723
F0.1
s(g3238
g649
tp7724
F0.2
s(g3646
g11
tp7725
F-0.1
s(g3236
g11
tp7726
F-0.1
s(g2607
g74
tp7727
F0.3
s(S'U10:_B-1'
p7728
g85
tp7729
F0.1
s(g6721
g1061
tp7730
F0.1
s(g5794
g11
tp7731
F-0.1
s(g5085
g11
tp7732
F-0.2
s(g7718
g11
tp7733
F-0.1
s(g6572
g141
tp7734
F0.1
s(g3724
g11
tp7735
F-0.2
s(g53
g8
tp7736
F0.1
s(g6969
g2715
tp7737
F0.1
s(g4641
g11
tp7738
F-0.1
s(g6789
g974
tp7739
F0.1
s(g3929
g11
tp7740
F-0.1
s(S'U02:and'
p7741
g1012
tp7742
F0.2
s(g5871
g11
tp7743
F-0.1
s(g2016
g11
tp7744
F-0.1
s(g6727
g11
tp7745
F-1.9
s(S'U10:VBZ'
p7746
g347
tp7747
F0.1
s(g6267
g841
tp7748
F0.1
s(S'U06:``/If'
p7749
g11
tp7750
F-0.1
s(g4313
g11
tp7751
F-0.1
s(g6688
g11
tp7752
F-0.1
s(g592
g216
tp7753
F0.1
s(S'U14:JJ'
p7754
g11
tp7755
F-1.8
s(g7202
g537
tp7756
F0.3
s(g7313
g1141
tp7757
F0.1
s(g1886
g496
tp7758
F0.1
s(g5756
g128
tp7759
F0.1
s(S'U10:DT'
p7760
g225
tp7761
F0.1
s(g6939
g11
tp7762
F-0.1
s(g3912
g11
tp7763
F-0.1
s(g5628
g125
tp7764
F0.1
s(g6613
g700
tp7765
F0.1
s(g4764
g11
tp7766
F-0.1
s(g4395
g1708
tp7767
F0.1
s(g2045
g11
tp7768
F-0.1
s(g2800
g1513
tp7769
F0.1
s(g2786
g1733
tp7770
F0.1
s(g5028
g967
tp7771
F0.1
s(g504
g266
tp7772
F0.1
s(g7238
g11
tp7773
F-0.2
s(g7749
g74
tp7774
F0.1
s(g6180
g11
tp7775
F-0.2
s(g6980
g11
tp7776
F-0.1
s(g4484
g921
tp7777
F0.1
s(g4757
g333
tp7778
F0.1
s(g6304
g11
tp7779
F-0.1
s(g3479
g11
tp7780
F-0.1
s(g5423
g350
tp7781
F0.1
s(g6019
g1548
tp7782
F0.1
s(g6786
g405
tp7783
F0.1
s(g7310
g11
tp7784
F-0.1
s(g557
g74
tp7785
F0.2
s(g6255
g74
tp7786
F0.1
s(g6861
g762
tp7787
F0.1
s(g3462
g11
tp7788
F-0.1
s(g6683
g11
tp7789
F-0.1
s(S'U13:TO'
p7790
g247
tp7791
F0.1
s(g3452
g22
tp7792
F0.1
s(g6740
g74
tp7793
F0.1
s(g2987
g11
tp7794
F-0.1
s(g3447
g11
tp7795
F-0.8
s(g7169
g1336
tp7796
F0.1
s(g5282
g136
tp7797
F0.2
s(g1083
g230
tp7798
F0.1
s(g814
g1394
tp7799
F0.1
s(g6354
g785
tp7800
F0.1
s(g5147
g11
tp7801
F-0.2
s(g4665
g178
tp7802
F0.1
s(g7119
g845
tp7803
F0.1
s(g7320
g74
tp7804
F0.1
s(g7503
g1632
tp7805
F0.1
s(g5909
g74
tp7806
F0.1
s(g6620
g714
tp7807
F0.1
s(g4849
g1576
tp7808
F0.2
s(g3523
g11
tp7809
F-0.1
s(S'U13:EX'
p7810
g74
tp7811
F0.1
s(g402
g1157
tp7812
F0.5
s(g4530
g1133
tp7813
F0.1
s(g6236
g269
tp7814
F0.1
s(g4957
g11
tp7815
F-0.6
s(g1723
g74
tp7816
F0.1
s(g3079
g11
tp7817
F-0.3
s(g7005
g11
tp7818
F-0.1
s(g4784
g11
tp7819
F-0.1
s(g6387
g11
tp7820
F-0.1
s(g1130
g1157
tp7821
F0.1
s(g1169
g74
tp7822
F0.1
s(g2674
g11
tp7823
F-0.1
s(g5500
g11
tp7824
F-0.1
s(g5914
g11
tp7825
F-0.1
s(g7070
g74
tp7826
F0.1
s(g2095
g11
tp7827
F-0.1
s(g748
g11
tp7828
F-0.1
s(g3576
g11
tp7829
F-0.1
s(g7088
g11
tp7830
F-0.2
s(g1429
g676
tp7831
F0.1
s(S'B:I-NP'
p7832
g294
tp7833
F4.6
s(g7428
g96
tp7834
F0.1
s(g7754
g289
tp7835
F0.7
s(g1704
g11
tp7836
F-0.1
s(S'U00:widely'
p7837
g384
tp7838
F0.1
s(g3490
g11
tp7839
F-0.8
s(g3289
g11
tp7840
F-0.1
s(g7250
g854
tp7841
F0.2
s(g3942
g11
tp7842
F-0.1
s(g1219
g74
tp7843
F0.1
s(g7470
g800
tp7844
F0.1
s(g3827
g11
tp7845
F-0.1
s(g2814
g11
tp7846
F-0.2
s(g3360
g11
tp7847
F-1.0
s(g2996
g1792
tp7848
F0.1
s(g5577
g1028
tp7849
F0.1
s(g1673
g11
tp7850
F-0.1
s(S'U17:IN/NNP'
p7851
g225
tp7852
F0.1
s(S'U18:RB/IN'
p7853
g128
tp7854
F0.1
s(g872
g74
tp7855
F0.1
s(g95
g11
tp7856
F-0.2
s(g7478
g11
tp7857
F-0.1
s(g925
g1211
tp7858
F0.2
s(g4495
g11
tp7859
F-0.1
s(g5546
g11
tp7860
F-0.1
s(S'U13:NNP'
p7861
g74
tp7862
F0.1
s(g2686
g11
tp7863
F-0.1
s(g4721
g194
tp7864
F0.1
s(g1312
g108
tp7865
F0.1
s(g6101
g11
tp7866
F-0.2
s(g826
g11
tp7867
F-1.0
s(g7658
g11
tp7868
F-0.1
s(S'U03:for'
p7869
g1122
tp7870
F0.1
s(g3760
g11
tp7871
F-0.4
s(g3416
g11
tp7872
F-0.1
s(g1036
g11
tp7873
F-0.3
s(g4609
g11
tp7874
F-0.3
s(g6817
g2126
tp7875
F0.1
s(g5776
g133
tp7876
F0.1
s(g4213
g11
tp7877
F-0.1
s(g4140
g11
tp7878
F-0.4
s(g7205
g11
tp7879
F-0.1
s(S'U20:IN/DT/#'
p7880
g3180
tp7881
F0.1
s(g5660
g11
tp7882
F-0.1
s(g7332
g11
tp7883
F-0.1
s(S'U00:in'
p7884
g691
tp7885
F0.1
s(g4955
g11
tp7886
F-0.1
s(g1501
g11
tp7887
F-0.4
s(g1034
g152
tp7888
F0.1
s(g631
g11
tp7889
F-0.1
s(g6828
g11
tp7890
F-0.1
s(g2944
g11
tp7891
F-0.1
s.